
SYSTEM.elf:     file format elf32-littlenios2
SYSTEM.elf
architecture: nios2, flags 0x00000112:
EXEC_P, HAS_SYMS, D_PAGED
start address 0x000001a4

Program Header:
    LOAD off    0x00001020 vaddr 0x00200020 paddr 0x00000000 align 2**12
         filesz 0x000001a4 memsz 0x000001a4 flags r-x
    LOAD off    0x000021a4 vaddr 0x000001a4 paddr 0x000001a4 align 2**12
         filesz 0x0000eb30 memsz 0x0000eb30 flags r-x
    LOAD off    0x00010cd4 vaddr 0x0000ecd4 paddr 0x000105f8 align 2**12
         filesz 0x00001924 memsz 0x00001924 flags rw-
    LOAD off    0x00012f1c vaddr 0x00011f1c paddr 0x00011f1c align 2**12
         filesz 0x00000000 memsz 0x00000360 flags rw-
    LOAD off    0x00013000 vaddr 0x00200000 paddr 0x00200000 align 2**12
         filesz 0x00000020 memsz 0x00000020 flags r-x

Sections:
Idx Name          Size      VMA       LMA       File off  Algn
  0 .entry        00000020  00200000  00200000  00013000  2**5
                  CONTENTS, ALLOC, LOAD, READONLY, CODE
  1 .exceptions   000001a4  00200020  00000000  00001020  2**2
                  CONTENTS, ALLOC, LOAD, READONLY, CODE
  2 .text         0000e4f4  000001a4  000001a4  000021a4  2**2
                  CONTENTS, ALLOC, LOAD, READONLY, CODE
  3 .rodata       0000063c  0000e698  0000e698  00010698  2**2
                  CONTENTS, ALLOC, LOAD, READONLY, DATA
  4 .rwdata       00001924  0000ecd4  000105f8  00010cd4  2**2
                  CONTENTS, ALLOC, LOAD, DATA, SMALL_DATA
  5 .bss          00000360  00011f1c  00011f1c  00012f1c  2**2
                  ALLOC, SMALL_DATA
  6 .comment      00000026  00000000  00000000  00013020  2**0
                  CONTENTS, READONLY
  7 .debug_aranges 00000d58  00000000  00000000  00013048  2**3
                  CONTENTS, READONLY, DEBUGGING
  8 .debug_pubnames 00002afd  00000000  00000000  00013da0  2**0
                  CONTENTS, READONLY, DEBUGGING
  9 .debug_info   00018198  00000000  00000000  0001689d  2**0
                  CONTENTS, READONLY, DEBUGGING
 10 .debug_abbrev 00006e51  00000000  00000000  0002ea35  2**0
                  CONTENTS, READONLY, DEBUGGING
 11 .debug_line   00010d9e  00000000  00000000  00035886  2**0
                  CONTENTS, READONLY, DEBUGGING
 12 .debug_frame  00001794  00000000  00000000  00046624  2**2
                  CONTENTS, READONLY, DEBUGGING
 13 .debug_str    00001aec  00000000  00000000  00047db8  2**0
                  CONTENTS, READONLY, DEBUGGING
 14 .debug_loc    00006bc4  00000000  00000000  000498a4  2**0
                  CONTENTS, READONLY, DEBUGGING
 15 .debug_alt_sim_info 00000040  00000000  00000000  00050468  2**2
                  CONTENTS, READONLY, DEBUGGING
 16 .debug_ranges 00000830  00000000  00000000  000504a8  2**3
                  CONTENTS, READONLY, DEBUGGING
 17 .thread_model 00000003  00000000  00000000  0005452b  2**0
                  CONTENTS, READONLY
 18 .cpu          00000008  00000000  00000000  0005452e  2**0
                  CONTENTS, READONLY
 19 .qsys         00000001  00000000  00000000  00054536  2**0
                  CONTENTS, READONLY
 20 .simulation_enabled 00000001  00000000  00000000  00054537  2**0
                  CONTENTS, READONLY
 21 .stderr_dev   00000009  00000000  00000000  00054538  2**0
                  CONTENTS, READONLY
 22 .stdin_dev    00000009  00000000  00000000  00054541  2**0
                  CONTENTS, READONLY
 23 .stdout_dev   00000009  00000000  00000000  0005454a  2**0
                  CONTENTS, READONLY
 24 .sopc_system_name 0000000d  00000000  00000000  00054553  2**0
                  CONTENTS, READONLY
 25 .quartus_project_dir 00000023  00000000  00000000  00054560  2**0
                  CONTENTS, READONLY
 26 .jdi          00005371  00000000  00000000  00054583  2**0
                  CONTENTS, READONLY
 27 .sopcinfo     0026b56a  00000000  00000000  000598f4  2**0
                  CONTENTS, READONLY
SYMBOL TABLE:
00200000 l    d  .entry	00000000 .entry
00200020 l    d  .exceptions	00000000 .exceptions
000001a4 l    d  .text	00000000 .text
0000e698 l    d  .rodata	00000000 .rodata
0000ecd4 l    d  .rwdata	00000000 .rwdata
00011f1c l    d  .bss	00000000 .bss
00000000 l    d  .comment	00000000 .comment
00000000 l    d  .debug_aranges	00000000 .debug_aranges
00000000 l    d  .debug_pubnames	00000000 .debug_pubnames
00000000 l    d  .debug_info	00000000 .debug_info
00000000 l    d  .debug_abbrev	00000000 .debug_abbrev
00000000 l    d  .debug_line	00000000 .debug_line
00000000 l    d  .debug_frame	00000000 .debug_frame
00000000 l    d  .debug_str	00000000 .debug_str
00000000 l    d  .debug_loc	00000000 .debug_loc
00000000 l    d  .debug_alt_sim_info	00000000 .debug_alt_sim_info
00000000 l    d  .debug_ranges	00000000 .debug_ranges
000001e4 l       .text	00000000 alt_after_alt_main
00000000 l    df *ABS*	00000000 alt_irq_handler.c
00000000 l    df *ABS*	00000000 LCD.c
00000000 l    df *ABS*	00000000 RuntimeFunctions.c
00000000 l    df *ABS*	00000000 config.c
00000000 l    df *ABS*	00000000 main.c
00000000 l    df *ABS*	00000000 tests.c
00000000 l    df *ABS*	00000000 s_floor.c
00000000 l    df *ABS*	00000000 s_sin.c
00000000 l    df *ABS*	00000000 w_acos.c
00000000 l    df *ABS*	00000000 w_asin.c
00000000 l    df *ABS*	00000000 w_sqrt.c
00000000 l    df *ABS*	00000000 e_acos.c
00000000 l    df *ABS*	00000000 e_asin.c
00000000 l    df *ABS*	00000000 e_rem_pio2.c
0000e798 l     O .rodata	00000108 two_over_pi
0000e718 l     O .rodata	00000080 npio2_hw
00000000 l    df *ABS*	00000000 e_sqrt.c
00000000 l    df *ABS*	00000000 k_cos.c
00000000 l    df *ABS*	00000000 k_rem_pio2.c
0000e8a0 l     O .rodata	00000010 init_jk
0000e8b0 l     O .rodata	00000040 PIo2
00000000 l    df *ABS*	00000000 k_sin.c
00000000 l    df *ABS*	00000000 s_fabs.c
00000000 l    df *ABS*	00000000 s_isnand.c
00000000 l    df *ABS*	00000000 s_lib_ver.c
00000000 l    df *ABS*	00000000 s_matherr.c
00000000 l    df *ABS*	00000000 s_nan.c
00000000 l    df *ABS*	00000000 s_scalbn.c
00000000 l    df *ABS*	00000000 s_copysign.c
00000000 l    df *ABS*	00000000 libgcc2.c
00000000 l    df *ABS*	00000000 libgcc2.c
00000000 l    df *ABS*	00000000 libgcc2.c
00000000 l    df *ABS*	00000000 libgcc2.c
00000000 l    df *ABS*	00000000 libgcc2.c
00000000 l    df *ABS*	00000000 libgcc2.c
00000000 l    df *ABS*	00000000 libgcc2.c
00000000 l    df *ABS*	00000000 libgcc2.c
00000000 l    df *ABS*	00000000 fp-bit.c
00008bb4 l     F .text	000001e4 _fpadd_parts
00000000 l    df *ABS*	00000000 fp-bit.c
00000000 l    df *ABS*	00000000 fp-bit.c
00000000 l    df *ABS*	00000000 fp-bit.c
00000000 l    df *ABS*	00000000 fp-bit.c
00000000 l    df *ABS*	00000000 fp-bit.c
00000000 l    df *ABS*	00000000 fp-bit.c
00000000 l    df *ABS*	00000000 fp-bit.c
00000000 l    df *ABS*	00000000 fp-bit.c
00000000 l    df *ABS*	00000000 dp-bit.c
00009414 l     F .text	00000410 _fpadd_parts
00000000 l    df *ABS*	00000000 dp-bit.c
00000000 l    df *ABS*	00000000 dp-bit.c
00000000 l    df *ABS*	00000000 dp-bit.c
00000000 l    df *ABS*	00000000 dp-bit.c
00000000 l    df *ABS*	00000000 dp-bit.c
00000000 l    df *ABS*	00000000 dp-bit.c
00000000 l    df *ABS*	00000000 dp-bit.c
00000000 l    df *ABS*	00000000 dp-bit.c
00000000 l    df *ABS*	00000000 dp-bit.c
00000000 l    df *ABS*	00000000 dp-bit.c
00000000 l    df *ABS*	00000000 dp-bit.c
00000000 l    df *ABS*	00000000 dp-bit.c
00000000 l    df *ABS*	00000000 lib2-divmod.c
0000a564 l     F .text	0000007c udivmodsi4
00000000 l    df *ABS*	00000000 lib2-mul.c
00000000 l    df *ABS*	00000000 libgcc2.c
00000000 l    df *ABS*	00000000 libgcc2.c
00000000 l    df *ABS*	00000000 libgcc2.c
00000000 l    df *ABS*	00000000 fp-bit.c
00000000 l    df *ABS*	00000000 fp-bit.c
00000000 l    df *ABS*	00000000 fp-bit.c
00000000 l    df *ABS*	00000000 fp-bit.c
00000000 l    df *ABS*	00000000 dp-bit.c
00000000 l    df *ABS*	00000000 dp-bit.c
00000000 l    df *ABS*	00000000 dp-bit.c
00000000 l    df *ABS*	00000000 errno.c
00000000 l    df *ABS*	00000000 impure.c
0000ed0c l     O .rwdata	00000400 impure_data
00000000 l    df *ABS*	00000000 strlen.c
00000000 l    df *ABS*	00000000 alt_load.c
0000b128 l     F .text	00000074 alt_load_section
00000000 l    df *ABS*	00000000 alt_main.c
00000000 l    df *ABS*	00000000 alt_usleep.c
00000000 l    df *ABS*	00000000 alt_sys_init.c
0000f10c l     O .rwdata	00001060 JTAG_UART
0001016c l     O .rwdata	00000120 LCD
0000b2e8 l     F .text	00000040 alt_dev_reg
00000000 l    df *ABS*	00000000 altera_avalon_jtag_uart_fd.c
00000000 l    df *ABS*	00000000 altera_avalon_jtag_uart_init.c
0000b558 l     F .text	00000230 altera_avalon_jtag_uart_irq
0000b788 l     F .text	000000b8 altera_avalon_jtag_uart_timeout
00000000 l    df *ABS*	00000000 altera_avalon_jtag_uart_ioctl.c
00000000 l    df *ABS*	00000000 altera_avalon_jtag_uart_read.c
00000000 l    df *ABS*	00000000 altera_avalon_jtag_uart_write.c
00000000 l    df *ABS*	00000000 altera_avalon_lcd_16207.c
000105cc l     O .rwdata	00000004 colstart
0000be2c l     F .text	000000c0 lcd_write_command
0000beec l     F .text	000000dc lcd_write_data
0000bfc8 l     F .text	000000e0 lcd_clear_screen
0000c0a8 l     F .text	0000021c lcd_repaint_screen
0000c2c4 l     F .text	000000e8 lcd_scroll_up
0000c3ac l     F .text	000002ec lcd_handle_escape
0000cbdc l     F .text	000000d4 alt_lcd_16207_timeout
00000000 l    df *ABS*	00000000 altera_avalon_lcd_16207_fd.c
00000000 l    df *ABS*	00000000 alt_alarm_start.c
00000000 l    df *ABS*	00000000 alt_busy_sleep.c
00000000 l    df *ABS*	00000000 alt_close.c
0000d21c l     F .text	00000068 alt_get_errno
00000000 l    df *ABS*	00000000 alt_dcache_flush_all.c
00000000 l    df *ABS*	00000000 alt_dev.c
0000d2a8 l     F .text	00000034 alt_dev_null_write
00000000 l    df *ABS*	00000000 alt_dev_llist_insert.c
0000d398 l     F .text	00000068 alt_get_errno
00000000 l    df *ABS*	00000000 alt_do_ctors.c
00000000 l    df *ABS*	00000000 alt_do_dtors.c
00000000 l    df *ABS*	00000000 alt_errno.c
00000000 l    df *ABS*	00000000 alt_icache_flush_all.c
00000000 l    df *ABS*	00000000 alt_iic.c
00000000 l    df *ABS*	00000000 alt_iic_isr_register.c
00000000 l    df *ABS*	00000000 alt_io_redirect.c
0000d7f0 l     F .text	000000e0 alt_open_fd
00000000 l    df *ABS*	00000000 alt_irq_vars.c
00000000 l    df *ABS*	00000000 alt_open.c
0000d950 l     F .text	00000100 alt_file_locked
0000dbe4 l     F .text	00000068 alt_get_errno
00000000 l    df *ABS*	00000000 alt_release_fd.c
00000000 l    df *ABS*	00000000 alt_tick.c
00000000 l    df *ABS*	00000000 altera_nios2_qsys_irq.c
00000000 l    df *ABS*	00000000 alt_find_dev.c
00000000 l    df *ABS*	00000000 alt_find_file.c
00000000 l    df *ABS*	00000000 alt_get_fd.c
00000000 l    df *ABS*	00000000 atexit.c
00000000 l    df *ABS*	00000000 ctype_.c
0000eb51 l     O .rodata	00000180 _ctype_b
00000000 l    df *ABS*	00000000 exit.c
00000000 l    df *ABS*	00000000 int_errno.c
00000000 l    df *ABS*	00000000 memcmp.c
00000000 l    df *ABS*	00000000 memcpy.c
00000000 l    df *ABS*	00000000 memset.c
00000000 l    df *ABS*	00000000 __atexit.c
00000000 l    df *ABS*	00000000 __call_atexit.c
0000e470 l     F .text	00000004 register_fini
00000000 l    df *ABS*	00000000 alt_exit.c
0000e624 l     F .text	00000048 alt_sim_halt
0000319c g     F .text	00000130 init_FIFO
0000b19c g     F .text	00000074 alt_main
000104d0 g     O .rwdata	00000004 CH1_Yn3ML
00011fec g     O .bss	00000100 alt_irq
0001055c g     O .rwdata	00000004 CH3_Yn3MU
00010570 g     O .rwdata	00000004 CH4_RD
00007750 g     F .text	00000018 fabs
00004154 g     F .text	00000130 sqrt
000105f8 g       *ABS*	00000000 __flash_rwdata_start
00009f34 g     F .text	00000088 __eqdf2
00007e30 g     F .text	00000718 __divdi3
00010560 g     O .rwdata	00000004 CH3_Yn3U
00010460 g     O .rwdata	00000004 CH0_RD
00010564 g     O .rwdata	00000004 CH4_timer_rst
00011f38 g     O .bss	00000008 CH3_nOut
0001048c g     O .rwdata	00000004 CH0_Yn3ML
000105a0 g     O .rwdata	00000004 CH4_Yn3MU
000104cc g     O .rwdata	00000004 CH1_Yn3L
00010490 g     O .rwdata	00000004 CH0_Yn3MU
0001056c g     O .rwdata	00000004 CH4_peakFound
00011f40 g     O .bss	00000004 calc_mode
000104a0 g     O .rwdata	00000004 CH1_peakFound
0001046c g     O .rwdata	00000004 CH0_Yn1ML
0000904c g     F .text	00000174 __divsf3
00010530 g     O .rwdata	00000004 CH3_TIME
000029c0 g     F .text	00000254 determinant
0000037c g     F .text	00001288 sampleChannels
000105a8 g     O .rwdata	00000001 threshold
000104c0 g     O .rwdata	00000004 CH1_Yn2ML
00009fbc g     F .text	00000088 __gtdf2
0000b01c g     F .text	00000010 __errno
00200000 g     F .entry	0000000c __reset
0001058c g     O .rwdata	00000004 CH4_Yn2ML
00003a80 g     F .text	0000006c start_SYSTEM
00000000 g       *ABS*	00000000 __flash_exceptions_start
00011f98 g     O .bss	00000004 errno
00010494 g     O .rwdata	00000004 CH0_Yn3U
0000a324 g     F .text	00000038 __make_dp
00003b64 g     F .text	00000224 floor
00002c14 g     F .text	000000f4 transpose
00010438 g     O .rwdata	00000004 Nreceivers
000104b8 g     O .rwdata	00000004 CH1_Yn1U
0000aadc g     F .text	0000002c __make_fp
00010520 g     O .rwdata	00000004 CH3_timer_rst
00011f84 g     O .bss	00000004 alt_argv
00018434 g       *ABS*	00000000 _gp
0000b210 g     F .text	00000038 usleep
00008d98 g     F .text	00000070 __subsf3
00010584 g     O .rwdata	00000004 CH4_Yn1U
00010458 g     O .rwdata	00000004 CH0_threshold
00011f74 g     O .bss	00000008 thresholdMultiplier
000104d4 g     O .rwdata	00000004 CH1_Yn3MU
000102b4 g     O .rwdata	00000180 alt_fd_list
00010528 g     O .rwdata	00000004 CH3_peakFound
00002e54 g     F .text	00000114 float2int
00005598 g     F .text	00000828 __ieee754_rem_pio2
00011f20 g     O .bss	00000004 realR
0000dea8 g     F .text	0000009c alt_find_dev
0000e204 g     F .text	000000a0 memcpy
00010550 g     O .rwdata	00000004 CH3_Yn2U
00001e14 g     F .text	00000708 find_coordinates
0000a154 g     F .text	000000f8 __floatsidf
0000d8d0 g     F .text	00000080 alt_io_redirect
0000a0cc g     F .text	00000088 __ltdf2
000105bc g     O .rwdata	00000004 sumHsq_CH4
0000e698 g       *ABS*	00000000 __DTOR_END__
00002834 g     F .text	0000018c find_denominator
00010454 g     O .rwdata	00000004 CH0_timer_rst
000104b0 g     O .rwdata	00000004 CH1_Yn1ML
00010478 g     O .rwdata	00000004 CH0_Yn2L
0000b9b8 g     F .text	0000022c altera_avalon_jtag_uart_read
00000000  w      *UND*	00000000 malloc
0000a6a0 g     F .text	00000008 __udivsi3
00006088 g     F .text	0000052c __kernel_cos
0000a768 g     F .text	000000a4 __fixunsdfsi
00000000 g       *ABS*	00000000 __alt_mem_SSRAM
000104a4 g     O .rwdata	00000004 CH1_RD
00011f44 g     O .bss	00000004 phi
00010474 g     O .rwdata	00000004 CH0_Yn1U
00011f34 g     O .bss	00000004 k
000105e0 g     O .rwdata	00000004 alt_max_fd
0000ae1c g     F .text	00000138 __unpack_d
00007438 g     F .text	00000318 __kernel_sin
000093c0 g     F .text	00000054 __extendsfdf2
000098a4 g     F .text	00000074 __adddf3
000105c0 g     O .rwdata	00000004 __fdlib_version
000105c8 g     O .rwdata	00000004 _global_impure_ptr
0001227c g       *ABS*	00000000 __bss_end
0000d6f0 g     F .text	00000100 alt_iic_isr_register
0000dd6c g     F .text	00000114 alt_tick
00008548 g     F .text	0000066c __udivdi3
0000a3d0 g     F .text	00000194 __floatunsidf
00011f48 g     O .bss	00000004 distance
000105f4 g     O .rwdata	00000004 __ctype_ptr
0001044c g     O .rwdata	00000004 det_on
0000d6a0 g     F .text	00000050 alt_ic_irq_enabled
000104e0 g     O .rwdata	00000004 CH2_threshold
0000dccc g     F .text	000000a0 alt_alarm_stop
000104a8 g     O .rwdata	00000004 CH1_TIME
00011f8c g     O .bss	00000004 alt_irq_active
0001047c g     O .rwdata	00000004 CH0_Yn2ML
002000f4 g     F .exceptions	000000d0 alt_irq_handler
0001028c g     O .rwdata	00000028 alt_dev_null
000065b4 g     F .text	00000e84 __kernel_rem_pio2
000002e0 g     F .text	0000009c LCD_Display
000104c4 g     O .rwdata	00000004 CH1_Yn2MU
0000a96c g     F .text	000000c8 __unpack_f
00010448 g     O .rwdata	00000004 sub_on
0000d284 g     F .text	00000024 alt_dcache_flush_all
0000a24c g     F .text	000000d8 __fixdfsi
00010464 g     O .rwdata	00000004 CH0_TIME
000104b4 g     O .rwdata	00000004 CH1_Yn1MU
00011f4c g     O .bss	00000004 theta
00007c10 g     F .text	000000e0 __floatdisf
000105f8 g       *ABS*	00000000 __ram_rwdata_end
000105d8 g     O .rwdata	00000008 alt_dev_list
00011f2c g     O .bss	00000004 max_error
00009238 g     F .text	00000078 __gtsf2
0000ecd4 g     O .rwdata	00000018 LCD_CMD
00010514 g     O .rwdata	00000004 CH2_Yn3ML
0000ecd4 g       *ABS*	00000000 __ram_rodata_end
00011f9c g     O .bss	00000014 z
00011f50 g     O .bss	00000008 CH1_nOut
00010590 g     O .rwdata	00000004 CH4_Yn2MU
00001604 g     F .text	000002e8 qInterp
0000a6a8 g     F .text	00000008 __umodsi3
00010554 g     O .rwdata	00000004 CH3_Yn3L
00001b54 g     F .text	000002c0 find_constants
0001227c g       *ABS*	00000000 end
000104f0 g     O .rwdata	00000004 CH2_Yn1L
0000a80c g     F .text	00000160 __pack_f
00010588 g     O .rwdata	00000004 CH4_Yn2L
0000c698 g     F .text	00000544 altera_avalon_lcd_16207_write
00010508 g     O .rwdata	00000004 CH2_Yn2MU
000018ec g     F .text	00000268 Display_Results
0000b490 g     F .text	000000c8 altera_avalon_jtag_uart_init
00011f7c g     O .bss	00000004 i
000104d8 g     O .rwdata	00000004 CH1_Yn3U
00004cdc g     F .text	000008bc __ieee754_asin
0000e694 g       *ABS*	00000000 __CTOR_LIST__
00200000 g       *ABS*	00000000 __alt_stack_pointer
0000a6e8 g     F .text	00000080 __clzsi2
0000bbe4 g     F .text	00000248 altera_avalon_jtag_uart_write
000105b8 g     O .rwdata	00000004 sumHsq_CH3
000104e4 g     O .rwdata	00000004 CH2_peakFound
00010468 g     O .rwdata	00000004 CH0_Yn1L
0000e474 g     F .text	000001b0 __call_exitprocs
000001a4 g     F .text	00000044 _start
00011f90 g     O .bss	00000004 _alt_tick_rate
00003d88 g     F .text	0000016c sin
00002d08 g     F .text	0000014c matrix_multiply
00007da8 g     F .text	00000088 __floatundidf
00011f94 g     O .bss	00000004 _alt_nticks
0000b284 g     F .text	00000064 alt_sys_init
00003824 g     F .text	0000025c init_SYSTEM
00009328 g     F .text	00000098 __floatsisf
0000e33c g     F .text	00000134 __register_exitproc
00010578 g     O .rwdata	00000004 CH4_Yn1L
000104ac g     O .rwdata	00000004 CH1_Yn1L
000105ac g     O .rwdata	00000004 sumHsq_CH0
0001052c g     O .rwdata	00000004 CH3_RD
0000b840 g     F .text	0000007c altera_avalon_jtag_uart_close
0000a6b0 g     F .text	00000038 __mulsi3
0000ecd4 g       *ABS*	00000000 __ram_rwdata_start
0000e698 g       *ABS*	00000000 __ram_rodata_start
000091c0 g     F .text	00000078 __eqsf2
000104bc g     O .rwdata	00000004 CH1_Yn2L
0000b328 g     F .text	00000060 altera_avalon_jtag_uart_read_fd
00010540 g     O .rwdata	00000004 CH3_Yn1U
0000e06c g     F .text	000000d8 alt_get_fd
0001049c g     O .rwdata	00000004 CH1_threshold
0000cfb0 g     F .text	00000164 alt_busy_sleep
0000af54 g     F .text	000000c8 __fpcmp_parts_d
000104ec g     O .rwdata	00000004 CH2_TIME
00007ad8 g     F .text	00000060 __fixsfdi
00002f68 g     F .text	00000120 init_ADC
0000e190 g     F .text	00000074 memcmp
0000b3e8 g     F .text	00000050 altera_avalon_jtag_uart_close_fd
0001227c g       *ABS*	00000000 __alt_stack_base
0000b438 g     F .text	00000058 altera_avalon_jtag_uart_ioctl_fd
00010444 g     O .rwdata	00000004 fifo_rst
00007cf0 g     F .text	000000b8 __floatundisf
00010484 g     O .rwdata	00000004 CH0_Yn2U
00011f58 g     O .bss	00000008 CH0_nOut
00009cdc g     F .text	00000258 __divdf3
00010538 g     O .rwdata	00000004 CH3_Yn1ML
00010558 g     O .rwdata	00000004 CH3_Yn3ML
00009918 g     F .text	000003c4 __muldf3
00011fb0 g     O .bss	00000014 counter
0000e8f0 g     O .rodata	00000010 __thenan_sf
0000df44 g     F .text	00000128 alt_find_file
0000d2dc g     F .text	000000bc alt_dev_llist_insert
0000ecec g     O .rwdata	00000010 line1
00011f1c g       *ABS*	00000000 __bss_start
000001e8 g     F .text	0000007c LCD_Init
0001043c g     O .rwdata	00000004 data
0000e2a4 g     F .text	00000098 memset
00003aec g     F .text	00000078 main
00200000 g       *ABS*	00000000 __alt_mem_RAM
000104c8 g     O .rwdata	00000004 CH1_Yn2U
00011f88 g     O .bss	00000004 alt_envp
0000b388 g     F .text	00000060 altera_avalon_jtag_uart_write_fd
000104e8 g     O .rwdata	00000004 CH2_RD
00011fc4 g     O .bss	00000014 d_2
0001057c g     O .rwdata	00000004 CH4_Yn1ML
000092b0 g     F .text	00000078 __ltsf2
0000ccb0 g     F .text	00000144 altera_avalon_lcd_16207_init
00007798 g     F .text	00000008 matherr
00010498 g     O .rwdata	00000004 CH1_timer_rst
0000a35c g     F .text	00000074 __truncdfsf2
000120ec g     O .bss	00000190 _atexit0
00011fd8 g     O .bss	00000014 y
00010500 g     O .rwdata	00000004 CH2_Yn2L
000105e4 g     O .rwdata	00000004 alt_errno
0001227c g       *ABS*	00000000 __alt_stack_limit
00007b38 g     F .text	000000d8 __fixunssfdi
0000a5e0 g     F .text	00000060 __divsi3
00003088 g     F .text	00000114 init_FIR
0000e900 g     O .rodata	00000014 __thenan_df
00010544 g     O .rwdata	00000004 CH3_Yn2L
000105a4 g     O .rwdata	00000004 CH4_Yn3U
0000e698 g       *ABS*	00000000 __CTOR_END__
00011f60 g     O .bss	00000004 L
00008e6c g     F .text	000001e0 __mulsf3
00010450 g     O .rwdata	00000004 adc_on
00010580 g     O .rwdata	00000004 CH4_Yn1MU
0000e698 g       *ABS*	00000000 __flash_rodata_start
00011f64 g     O .bss	00000008 CH2_nOut
0000e698 g       *ABS*	00000000 __DTOR_LIST__
00007990 g     F .text	00000024 copysign
000104f4 g     O .rwdata	00000004 CH2_Yn1ML
0000b248 g     F .text	0000003c alt_irq_init
0000dc4c g     F .text	00000080 alt_release_fd
0000e914 g     O .rodata	00000100 __clz_tab
00010574 g     O .rwdata	00000004 CH4_TIME
00011f6c g     O .bss	00000004 R
0000e144 g     F .text	00000014 atexit
00010470 g     O .rwdata	00000004 CH0_Yn1MU
00004024 g     F .text	00000130 asin
000104dc g     O .rwdata	00000004 CH2_timer_rst
000105c4 g     O .rwdata	00000004 _impure_ptr
00011f30 g     O .bss	00000004 error
00011f80 g     O .bss	00000004 alt_argc
000077b0 g     F .text	000001e0 scalbn
0000d46c g     F .text	0000006c _do_dtors
00010524 g     O .rwdata	00000004 CH3_threshold
00010594 g     O .rwdata	00000004 CH4_Yn2U
0000ecfc g     O .rwdata	00000010 line2
00200020 g       .exceptions	00000000 alt_irq_entry
0000cdf4 g     F .text	00000060 altera_avalon_lcd_16207_write_fd
000032cc g     F .text	000000cc init_TIMER
000105d0 g     O .rwdata	00000008 alt_fs_list
00011f24 g     O .bss	00000004 realphi
0001051c g     O .rwdata	00000004 CH2_Yn3U
000077a0 g     F .text	00000010 nan
00200020 g       *ABS*	00000000 __ram_exceptions_start
00000264 g     F .text	0000007c LCD_LineSel
00005dc0 g     F .text	000002c8 __ieee754_sqrt
0000d4fc g     F .text	00000058 alt_ic_isr_register
00010434 g     O .rwdata	00000004 alt_stack_limit_value
0001054c g     O .rwdata	00000004 CH3_Yn2MU
00010480 g     O .rwdata	00000004 CH0_Yn2MU
000105f8 g       *ABS*	00000000 _edata
0001227c g       *ABS*	00000000 _end
002001c4 g       *ABS*	00000000 __ram_exceptions_end
00011f70 g     O .bss	00000004 pi
0000b8bc g     F .text	000000fc altera_avalon_jtag_uart_ioctl
0000d5f8 g     F .text	000000a8 alt_ic_irq_disable
00010548 g     O .rwdata	00000004 CH3_Yn2ML
000105b4 g     O .rwdata	00000004 sumHsq_CH2
0000de80 g     F .text	00000028 altera_nios2_qsys_irq_init
0000e158 g     F .text	00000038 exit
0001050c g     O .rwdata	00000004 CH2_Yn2U
00010504 g     O .rwdata	00000004 CH2_Yn2ML
00011f28 g     O .bss	00000004 realtheta
0000a640 g     F .text	00000060 __modsi3
000105b0 g     O .rwdata	00000004 sumHsq_CH1
00200000 g       *ABS*	00000000 __alt_data_end
00200020 g     F .exceptions	00000000 alt_exception
00011f1c g     O .bss	00000004 LCD
0000ea50 g     O .rodata	00000101 _ctype_
0001059c g     O .rwdata	00000004 CH4_Yn3ML
0000aa34 g     F .text	000000a8 __fpcmp_parts_f
0000e66c g     F .text	00000028 _exit
00007768 g     F .text	00000030 __isnand
0000ce54 g     F .text	0000015c alt_alarm_start
000079b4 g     F .text	00000124 __muldi3
0000b02c g     F .text	00000074 strlen
0000da50 g     F .text	00000194 open
0000a044 g     F .text	00000088 __gedf2
0000251c g     F .text	00000318 convert_results
0000d4d8 g     F .text	00000024 alt_icache_flush_all
000104fc g     O .rwdata	00000004 CH2_Yn1U
000105e8 g     O .rwdata	00000004 alt_priority_mask
0000d554 g     F .text	000000a4 alt_ic_irq_enable
00003ef4 g     F .text	00000130 acos
00003398 g     F .text	0000048c init_DETECTOR
00010510 g     O .rwdata	00000004 CH2_Yn3L
0001053c g     O .rwdata	00000004 CH3_Yn1MU
00010534 g     O .rwdata	00000004 CH3_Yn1L
00009824 g     F .text	00000080 __subdf3
000104f8 g     O .rwdata	00000004 CH2_Yn1MU
000105ec g     O .rwdata	00000008 alt_alarm_list
0000d400 g     F .text	0000006c _do_ctors
00010598 g     O .rwdata	00000004 CH4_Yn3L
00010518 g     O .rwdata	00000004 CH2_Yn3MU
00010440 g     O .rwdata	00000004 data_valid
0001045c g     O .rwdata	00000004 CH0_peakFound
0000d114 g     F .text	00000108 close
00008e08 g     F .text	00000064 __addsf3
00010488 g     O .rwdata	00000004 CH0_Yn3L
0000b0a0 g     F .text	00000088 alt_load
0000ab08 g     F .text	00000314 __pack_d
00000000  w      *UND*	00000000 free
00004284 g     F .text	00000a58 __ieee754_acos
00010568 g     O .rwdata	00000004 CH4_threshold



Disassembly of section .entry:

00200000 <__reset>:
 * Jump to the _start entry point in the .text section if reset code
 * is allowed or if optimizing for RTL simulation.
 */
#if defined(ALT_ALLOW_CODE_AT_RESET) || defined(ALT_SIM_OPTIMIZE)
    /* Jump to the _start entry point in the .text section. */
    movhi r1, %hi(_start)
  200000:	00400034 	movhi	at,0
    ori r1, r1, %lo(_start)
  200004:	08406914 	ori	at,at,420
    jmp r1
  200008:	0800683a 	jmp	at
	...

Disassembly of section .exceptions:

00200020 <alt_exception>:
         * Process an exception.  For all exceptions we must preserve all
         * caller saved registers on the stack (See the Nios2 ABI
         * documentation for details).
         */

        addi  sp, sp, -76
  200020:	deffed04 	addi	sp,sp,-76

#ifdef ALT_STACK_CHECK

        bltu  sp, et, .Lstack_overflow
  200024:	de003236 	bltu	sp,et,2000f0 <alt_exception+0xd0>

#endif

#endif

        stw   ra,  0(sp)
  200028:	dfc00015 	stw	ra,0(sp)
        /*
         * Leave a gap in the stack frame at 4(sp) for the muldiv handler to
         * store zero into.
         */

        stw   r1,   8(sp)
  20002c:	d8400215 	stw	at,8(sp)
        stw   r2,  12(sp)
  200030:	d8800315 	stw	r2,12(sp)
        stw   r3,  16(sp)
  200034:	d8c00415 	stw	r3,16(sp)
        stw   r4,  20(sp)
  200038:	d9000515 	stw	r4,20(sp)
        stw   r5,  24(sp)
  20003c:	d9400615 	stw	r5,24(sp)
        stw   r6,  28(sp)
  200040:	d9800715 	stw	r6,28(sp)
        stw   r7,  32(sp)
  200044:	d9c00815 	stw	r7,32(sp)

        rdctl r5, estatus
  200048:	000b307a 	rdctl	r5,estatus

        stw   r8,  36(sp)
  20004c:	da000915 	stw	r8,36(sp)
        stw   r9,  40(sp)
  200050:	da400a15 	stw	r9,40(sp)
        stw   r10, 44(sp)
  200054:	da800b15 	stw	r10,44(sp)
        stw   r11, 48(sp)
  200058:	dac00c15 	stw	r11,48(sp)
        stw   r12, 52(sp)
  20005c:	db000d15 	stw	r12,52(sp)
        stw   r13, 56(sp)
  200060:	db400e15 	stw	r13,56(sp)
        stw   r14, 60(sp)
  200064:	db800f15 	stw	r14,60(sp)
        stw   r15, 64(sp)
  200068:	dbc01015 	stw	r15,64(sp)
        /*
         * ea-4 contains the address of the instruction being executed
         * when the exception occured. For interrupt exceptions, we will
         * will be re-issue the isntruction. Store it in 72(sp)
         */
        stw   r5,  68(sp)  /* estatus */
  20006c:	d9401115 	stw	r5,68(sp)
        addi  r15, ea, -4  /* instruction that caused exception */
  200070:	ebffff04 	addi	r15,ea,-4
        stw   r15,  72(sp)
  200074:	dbc01215 	stw	r15,72(sp)
#else
        /*
         * Test to see if the exception was a software exception or caused 
         * by an external interrupt, and vector accordingly.
         */
        rdctl r4, ipending
  200078:	0009313a 	rdctl	r4,ipending
        andi  r2, r5, 1
  20007c:	2880004c 	andi	r2,r5,1
        beq   r2, zero, .Lnot_irq
  200080:	10000326 	beq	r2,zero,200090 <alt_exception+0x70>
        beq   r4, zero, .Lnot_irq
  200084:	20000226 	beq	r4,zero,200090 <alt_exception+0x70>
        /*
         * Now that all necessary registers have been preserved, call 
         * alt_irq_handler() to process the interrupts.
         */

        call alt_irq_handler
  200088:	02000f40 	call	2000f4 <alt_irq_handler>

        .section .exceptions.irqreturn, "xa"

        br    .Lexception_exit
  20008c:	00000306 	br	20009c <alt_exception+0x7c>
         * upon completion, so we write ea (address of instruction *after*
         * the one where the exception occured) into 72(sp). The actual
         * instruction that caused the exception is written in r2, which these
         * handlers will utilize.
         */
        stw   ea,  72(sp)  /* Don't re-issue */
  200090:	df401215 	stw	ea,72(sp)
        ldw   r2, -4(ea)   /* Instruction that caused exception */
  200094:	e8bfff17 	ldw	r2,-4(ea)
#ifdef NIOS2_HAS_DEBUG_STUB
       /*
        *  Either tell the user now (if there is a debugger attached) or go into
        *  the debug monitor which will loop until a debugger is attached.
        */
        break
  200098:	003da03a 	break	0
        /* 
         * Restore the saved registers, so that all general purpose registers 
         * have been restored to their state at the time the interrupt occured.
         */

        ldw   r5,  68(sp)
  20009c:	d9401117 	ldw	r5,68(sp)
        ldw   ea,  72(sp)  /* This becomes the PC once eret is executed */
  2000a0:	df401217 	ldw	ea,72(sp)
        ldw   ra,   0(sp)
  2000a4:	dfc00017 	ldw	ra,0(sp)

        wrctl estatus, r5
  2000a8:	2801707a 	wrctl	estatus,r5

        ldw   r1,   8(sp)
  2000ac:	d8400217 	ldw	at,8(sp)
        ldw   r2,  12(sp)
  2000b0:	d8800317 	ldw	r2,12(sp)
        ldw   r3,  16(sp)
  2000b4:	d8c00417 	ldw	r3,16(sp)
        ldw   r4,  20(sp)
  2000b8:	d9000517 	ldw	r4,20(sp)
        ldw   r5,  24(sp)
  2000bc:	d9400617 	ldw	r5,24(sp)
        ldw   r6,  28(sp)
  2000c0:	d9800717 	ldw	r6,28(sp)
        ldw   r7,  32(sp)
  2000c4:	d9c00817 	ldw	r7,32(sp)
#ifdef ALT_STACK_CHECK
        ldw   et, %gprel(alt_exception_old_stack_limit)(gp)
#endif
#endif

        ldw   r8,  36(sp)
  2000c8:	da000917 	ldw	r8,36(sp)
        ldw   r9,  40(sp)
  2000cc:	da400a17 	ldw	r9,40(sp)
        ldw   r10, 44(sp)
  2000d0:	da800b17 	ldw	r10,44(sp)
        ldw   r11, 48(sp)
  2000d4:	dac00c17 	ldw	r11,48(sp)
        ldw   r12, 52(sp)
  2000d8:	db000d17 	ldw	r12,52(sp)
        ldw   r13, 56(sp)
  2000dc:	db400e17 	ldw	r13,56(sp)
        ldw   r14, 60(sp)
  2000e0:	db800f17 	ldw	r14,60(sp)
        ldw   r15, 64(sp)
  2000e4:	dbc01017 	ldw	r15,64(sp)
#endif

        ldw   sp,  76(sp)

#else
        addi  sp, sp, 76
  2000e8:	dec01304 	addi	sp,sp,76

        /*
         * Return to the interrupted instruction.
         */

        eret
  2000ec:	ef80083a 	eret

#ifdef ALT_STACK_CHECK

.Lstack_overflow:
        break 3
  2000f0:	003da0fa 	break	3

002000f4 <alt_irq_handler>:
 * instruction is present if the macro ALT_CI_INTERRUPT_VECTOR defined.
 */

void alt_irq_handler (void) __attribute__ ((section (".exceptions")));
void alt_irq_handler (void)
{
  2000f4:	defff904 	addi	sp,sp,-28
  2000f8:	de00012e 	bgeu	sp,et,200100 <alt_irq_handler+0xc>
  2000fc:	003da0fa 	break	3
  200100:	dfc00615 	stw	ra,24(sp)
  200104:	df000515 	stw	fp,20(sp)
  200108:	df000504 	addi	fp,sp,20
#ifndef NIOS2_EIC_PRESENT
static ALT_INLINE alt_u32 ALT_ALWAYS_INLINE alt_irq_pending (void)
{
  alt_u32 active;

  NIOS2_READ_IPENDING (active);
  20010c:	0005313a 	rdctl	r2,ipending
  200110:	e0bffc15 	stw	r2,-16(fp)

  return active;
  200114:	e0bffc17 	ldw	r2,-16(fp)
   * Consider the case where the high priority interupt is asserted during
   * the interrupt entry sequence for a lower priority interrupt to see why
   * this is the case.
   */

  active = alt_irq_pending ();
  200118:	e0bfff15 	stw	r2,-4(fp)

  do
  {
    i = 0;
  20011c:	e03ffd15 	stw	zero,-12(fp)
    mask = 1;
  200120:	00800044 	movi	r2,1
  200124:	e0bffe15 	stw	r2,-8(fp)
     * called to clear the interrupt condition.
     */

    do
    {
      if (active & mask)
  200128:	e0ffff17 	ldw	r3,-4(fp)
  20012c:	e0bffe17 	ldw	r2,-8(fp)
  200130:	1884703a 	and	r2,r3,r2
  200134:	1005003a 	cmpeq	r2,r2,zero
  200138:	1000161e 	bne	r2,zero,200194 <alt_irq_handler+0xa0>
      { 
#ifdef ALT_ENHANCED_INTERRUPT_API_PRESENT
        alt_irq[i].handler(alt_irq[i].context); 
  20013c:	e0bffd17 	ldw	r2,-12(fp)
  200140:	00c00074 	movhi	r3,1
  200144:	18c7fb04 	addi	r3,r3,8172
  200148:	100490fa 	slli	r2,r2,3
  20014c:	10c5883a 	add	r2,r2,r3
  200150:	11400017 	ldw	r5,0(r2)
  200154:	e0bffd17 	ldw	r2,-12(fp)
  200158:	00c00074 	movhi	r3,1
  20015c:	18c7fb04 	addi	r3,r3,8172
  200160:	100490fa 	slli	r2,r2,3
  200164:	10c5883a 	add	r2,r2,r3
  200168:	10800104 	addi	r2,r2,4
  20016c:	11000017 	ldw	r4,0(r2)
  200170:	283ee83a 	callr	r5
#ifndef NIOS2_EIC_PRESENT
static ALT_INLINE alt_u32 ALT_ALWAYS_INLINE alt_irq_pending (void)
{
  alt_u32 active;

  NIOS2_READ_IPENDING (active);
  200174:	0005313a 	rdctl	r2,ipending
  200178:	e0bffb15 	stw	r2,-20(fp)

  return active;
  20017c:	e0bffb17 	ldw	r2,-20(fp)
      mask <<= 1;
      i++;

    } while (1);

    active = alt_irq_pending ();
  200180:	e0bfff15 	stw	r2,-4(fp)
    
  } while (active);
  200184:	e0bfff17 	ldw	r2,-4(fp)
  200188:	1004c03a 	cmpne	r2,r2,zero
  20018c:	103fe31e 	bne	r2,zero,20011c <alt_irq_handler+0x28>
  200190:	00000706 	br	2001b0 <alt_irq_handler+0xbc>
#else
        alt_irq[i].handler(alt_irq[i].context, i); 
#endif
        break;
      }
      mask <<= 1;
  200194:	e0bffe17 	ldw	r2,-8(fp)
  200198:	1085883a 	add	r2,r2,r2
  20019c:	e0bffe15 	stw	r2,-8(fp)
      i++;
  2001a0:	e0bffd17 	ldw	r2,-12(fp)
  2001a4:	10800044 	addi	r2,r2,1
  2001a8:	e0bffd15 	stw	r2,-12(fp)

    } while (1);
  2001ac:	003fde06 	br	200128 <alt_irq_handler+0x34>
  /*
   * Notify the operating system that interrupt processing is complete.
   */ 

  ALT_OS_INT_EXIT();
}
  2001b0:	e037883a 	mov	sp,fp
  2001b4:	dfc00117 	ldw	ra,4(sp)
  2001b8:	df000017 	ldw	fp,0(sp)
  2001bc:	dec00204 	addi	sp,sp,8
  2001c0:	f800283a 	ret

Disassembly of section .text:

000001a4 <_start>:
#if (NIOS2_NUM_OF_SHADOW_REG_SETS == 0)    
    /*
     * Now that the caches are initialized, set up the stack pointer.
     * The value provided by the linker is assumed to be correctly aligned.
     */
    movhi sp, %hi(__alt_stack_pointer)
     1a4:	06c00834 	movhi	sp,32
    ori sp, sp, %lo(__alt_stack_pointer)
     1a8:	dec00014 	ori	sp,sp,0

    /* Set up the global pointer. */
    movhi gp, %hi(_gp)
     1ac:	06800074 	movhi	gp,1
    ori gp, gp, %lo(_gp)
     1b0:	d6a10d14 	ori	gp,gp,33844
 */
#ifndef ALT_SIM_OPTIMIZE
    /* Log that the BSS is about to be cleared. */
    ALT_LOG_PUTS(alt_log_msg_bss)

    movhi r2, %hi(__bss_start)
     1b4:	00800074 	movhi	r2,1
    ori r2, r2, %lo(__bss_start)
     1b8:	1087c714 	ori	r2,r2,7964

    movhi r3, %hi(__bss_end)
     1bc:	00c00074 	movhi	r3,1
    ori r3, r3, %lo(__bss_end)
     1c0:	18c89f14 	ori	r3,r3,8828

    beq r2, r3, 1f
     1c4:	10c00326 	beq	r2,r3,1d4 <_start+0x30>

0:
    stw zero, (r2)
     1c8:	10000015 	stw	zero,0(r2)
    addi r2, r2, 4
     1cc:	10800104 	addi	r2,r2,4
    bltu r2, r3, 0b
     1d0:	10fffd36 	bltu	r2,r3,1c8 <_start+0x24>
     * If the user has selected stack checking then we need to set up a safe
     * value in the stack limit register so that the relocation functions
     * don't think the stack has overflowed (the contents of the rwdata
     * section aren't defined until alt_load() has been called).
     */
    mov   et, zero
     1d4:	0031883a 	mov	et,zero
#endif

    call alt_load
     1d8:	000b0a00 	call	b0a0 <alt_load>
    /*
     * Set up the stack limit (if required).  The linker has set up the
     * copy of the variable which is in memory.
     */

    ldw   et, %gprel(alt_stack_limit_value)(gp)
     1dc:	d6200017 	ldw	et,-32768(gp)

    /* Log that alt_main is about to be called. */
    ALT_LOG_PUTS(alt_log_msg_alt_main)

    /* Call the C entry point. It should never return. */
    call alt_main
     1e0:	000b19c0 	call	b19c <alt_main>

000001e4 <alt_after_alt_main>:

    /* Wait in infinite loop in case alt_main does return. */
alt_after_alt_main:
    br alt_after_alt_main
     1e4:	003fff06 	br	1e4 <alt_after_alt_main>

000001e8 <LCD_Init>:

//===============================
// Initialisation sequence
//===============================
void LCD_Init()
{
     1e8:	defffd04 	addi	sp,sp,-12
     1ec:	de00012e 	bgeu	sp,et,1f4 <LCD_Init+0xc>
     1f0:	003da0fa 	break	3
     1f4:	dfc00215 	stw	ra,8(sp)
     1f8:	df000115 	stw	fp,4(sp)
     1fc:	df000104 	addi	fp,sp,4
	int i;
	for (i = 0; i < 4; i++) {
     200:	e03fff15 	stw	zero,-4(fp)
     204:	00000f06 	br	244 <LCD_Init+0x5c>
		IOWR(LCD_BASE, 0, LCD_CMD[i]);
     208:	e0bfff17 	ldw	r2,-4(fp)
     20c:	00c00074 	movhi	r3,1
     210:	18fb3504 	addi	r3,r3,-4908
     214:	1085883a 	add	r2,r2,r2
     218:	1085883a 	add	r2,r2,r2
     21c:	10c5883a 	add	r2,r2,r3
     220:	10c00017 	ldw	r3,0(r2)
     224:	00800834 	movhi	r2,32
     228:	108d7804 	addi	r2,r2,13792
     22c:	10c00035 	stwio	r3,0(r2)
		usleep(500);
     230:	01007d04 	movi	r4,500
     234:	000b2100 	call	b210 <usleep>
// Initialisation sequence
//===============================
void LCD_Init()
{
	int i;
	for (i = 0; i < 4; i++) {
     238:	e0bfff17 	ldw	r2,-4(fp)
     23c:	10800044 	addi	r2,r2,1
     240:	e0bfff15 	stw	r2,-4(fp)
     244:	e0bfff17 	ldw	r2,-4(fp)
     248:	10800110 	cmplti	r2,r2,4
     24c:	103fee1e 	bne	r2,zero,208 <LCD_Init+0x20>
		IOWR(LCD_BASE, 0, LCD_CMD[i]);
		usleep(500);
	}
}
     250:	e037883a 	mov	sp,fp
     254:	dfc00117 	ldw	ra,4(sp)
     258:	df000017 	ldw	fp,0(sp)
     25c:	dec00204 	addi	sp,sp,8
     260:	f800283a 	ret

00000264 <LCD_LineSel>:

//===============================
// LCD Control: Select line to Ouptut to
//===============================
void LCD_LineSel(int line)
{
     264:	defffd04 	addi	sp,sp,-12
     268:	de00012e 	bgeu	sp,et,270 <LCD_LineSel+0xc>
     26c:	003da0fa 	break	3
     270:	dfc00215 	stw	ra,8(sp)
     274:	df000115 	stw	fp,4(sp)
     278:	df000104 	addi	fp,sp,4
     27c:	e13fff15 	stw	r4,-4(fp)
	switch (line) {
     280:	e0bfff17 	ldw	r2,-4(fp)
     284:	108000a0 	cmpeqi	r2,r2,2
     288:	1000011e 	bne	r2,zero,290 <LCD_LineSel+0x2c>
     28c:	00000706 	br	2ac <LCD_LineSel+0x48>
	case 2:
		IOWR(LCD_BASE, 0, LCD_CMD[5]);
     290:	00800074 	movhi	r2,1
     294:	10bb3504 	addi	r2,r2,-4908
     298:	10c00517 	ldw	r3,20(r2)
     29c:	00800834 	movhi	r2,32
     2a0:	108d7804 	addi	r2,r2,13792
     2a4:	10c00035 	stwio	r3,0(r2)
		break;
     2a8:	00000606 	br	2c4 <LCD_LineSel+0x60>
	case 1:
	default:
		IOWR(LCD_BASE, 0, LCD_CMD[4]);
     2ac:	00800074 	movhi	r2,1
     2b0:	10bb3504 	addi	r2,r2,-4908
     2b4:	10c00417 	ldw	r3,16(r2)
     2b8:	00800834 	movhi	r2,32
     2bc:	108d7804 	addi	r2,r2,13792
     2c0:	10c00035 	stwio	r3,0(r2)
		break;
	}
	usleep(500);
     2c4:	01007d04 	movi	r4,500
     2c8:	000b2100 	call	b210 <usleep>
}
     2cc:	e037883a 	mov	sp,fp
     2d0:	dfc00117 	ldw	ra,4(sp)
     2d4:	df000017 	ldw	fp,0(sp)
     2d8:	dec00204 	addi	sp,sp,8
     2dc:	f800283a 	ret

000002e0 <LCD_Display>:

//===============================
// LCD Control: Output to line specified
//===============================
void LCD_Display(char* text, int line)
{
     2e0:	defffa04 	addi	sp,sp,-24
     2e4:	de00012e 	bgeu	sp,et,2ec <LCD_Display+0xc>
     2e8:	003da0fa 	break	3
     2ec:	dfc00515 	stw	ra,20(sp)
     2f0:	df000415 	stw	fp,16(sp)
     2f4:	dc000315 	stw	r16,12(sp)
     2f8:	df000304 	addi	fp,sp,12
     2fc:	e13ffe15 	stw	r4,-8(fp)
     300:	e17fff15 	stw	r5,-4(fp)
	LCD_LineSel(line);
     304:	e13fff17 	ldw	r4,-4(fp)
     308:	00002640 	call	264 <LCD_LineSel>

	int i;
	for (i = 0; i < strlen(text); i++) {
     30c:	e03ffd15 	stw	zero,-12(fp)
     310:	00001006 	br	354 <LCD_Display+0x74>
		IOWR(LCD_BASE, 2, text[i]);
     314:	e0bffd17 	ldw	r2,-12(fp)
     318:	1007883a 	mov	r3,r2
     31c:	e0bffe17 	ldw	r2,-8(fp)
     320:	1885883a 	add	r2,r3,r2
     324:	10800003 	ldbu	r2,0(r2)
     328:	10c03fcc 	andi	r3,r2,255
     32c:	18c0201c 	xori	r3,r3,128
     330:	18ffe004 	addi	r3,r3,-128
     334:	00800834 	movhi	r2,32
     338:	108d7a04 	addi	r2,r2,13800
     33c:	10c00035 	stwio	r3,0(r2)
		usleep(100);
     340:	01001904 	movi	r4,100
     344:	000b2100 	call	b210 <usleep>
void LCD_Display(char* text, int line)
{
	LCD_LineSel(line);

	int i;
	for (i = 0; i < strlen(text); i++) {
     348:	e0bffd17 	ldw	r2,-12(fp)
     34c:	10800044 	addi	r2,r2,1
     350:	e0bffd15 	stw	r2,-12(fp)
     354:	e43ffd17 	ldw	r16,-12(fp)
     358:	e13ffe17 	ldw	r4,-8(fp)
     35c:	000b02c0 	call	b02c <strlen>
     360:	80bfec36 	bltu	r16,r2,314 <LCD_Display+0x34>
		IOWR(LCD_BASE, 2, text[i]);
		usleep(100);
	}
}
     364:	e037883a 	mov	sp,fp
     368:	dfc00217 	ldw	ra,8(sp)
     36c:	df000117 	ldw	fp,4(sp)
     370:	dc000017 	ldw	r16,0(sp)
     374:	dec00304 	addi	sp,sp,12
     378:	f800283a 	ret

0000037c <sampleChannels>:

//===============================
// Sample All Channel for a Detection:
//===============================
void sampleChannels(void)
{
     37c:	deffb704 	addi	sp,sp,-292
     380:	de00012e 	bgeu	sp,et,388 <sampleChannels+0xc>
     384:	003da0fa 	break	3
     388:	dfc04815 	stw	ra,288(sp)
     38c:	df004715 	stw	fp,284(sp)
     390:	dc404615 	stw	r17,280(sp)
     394:	dc004515 	stw	r16,276(sp)
     398:	df004504 	addi	fp,sp,276
	alt_u32 YnL;
	alt_u64 YnML, YnMU, YnU;

	if (*CH0_peakFound) {
     39c:	d0a00a17 	ldw	r2,-32728(gp)
     3a0:	10800017 	ldw	r2,0(r2)
     3a4:	1005003a 	cmpeq	r2,r2,zero
     3a8:	1000fc1e 	bne	r2,zero,79c <sampleChannels+0x420>
		*CH0_RD = 0x1;
     3ac:	d0e00b17 	ldw	r3,-32724(gp)
     3b0:	00800044 	movi	r2,1
     3b4:	18800015 	stw	r2,0(r3)
		*CH0_RD = 0x0;
     3b8:	d0a00b17 	ldw	r2,-32724(gp)
     3bc:	10000015 	stw	zero,0(r2)

		YnL				= *CH0_Yn1L;
     3c0:	d0a00d17 	ldw	r2,-32716(gp)
     3c4:	10800017 	ldw	r2,0(r2)
     3c8:	e0bfff15 	stw	r2,-4(fp)
		YnML 			= *CH0_Yn1ML;
     3cc:	d0a00e17 	ldw	r2,-32712(gp)
     3d0:	10800017 	ldw	r2,0(r2)
     3d4:	e0bffd15 	stw	r2,-12(fp)
     3d8:	1005d7fa 	srai	r2,r2,31
     3dc:	e0bffe15 	stw	r2,-8(fp)
		YnMU			= *CH0_Yn1MU;
     3e0:	d0a00f17 	ldw	r2,-32708(gp)
     3e4:	10800017 	ldw	r2,0(r2)
     3e8:	e0bffb15 	stw	r2,-20(fp)
     3ec:	1005d7fa 	srai	r2,r2,31
     3f0:	e0bffc15 	stw	r2,-16(fp)
		YnU 			= *CH0_Yn1U;
     3f4:	d0a01017 	ldw	r2,-32704(gp)
     3f8:	10800017 	ldw	r2,0(r2)
     3fc:	e0bff915 	stw	r2,-28(fp)
     400:	1005d7fa 	srai	r2,r2,31
     404:	e0bffa15 	stw	r2,-24(fp)
		alt_u64 Yn1DEN 	= ((YnML & 0x3FFFF) << 32) + YnL;
     408:	e1bffd17 	ldw	r6,-12(fp)
     40c:	01000134 	movhi	r4,4
     410:	213fffc4 	addi	r4,r4,-1
     414:	e17ffe17 	ldw	r5,-8(fp)
     418:	3104703a 	and	r2,r6,r4
     41c:	2806703a 	and	r3,r5,zero
     420:	100a983a 	sll	r5,r2,zero
     424:	0009883a 	mov	r4,zero
     428:	e1bfff17 	ldw	r6,-4(fp)
     42c:	000f883a 	mov	r7,zero
     430:	2185883a 	add	r2,r4,r6
     434:	1111803a 	cmpltu	r8,r2,r4
     438:	29c7883a 	add	r3,r5,r7
     43c:	40c9883a 	add	r4,r8,r3
     440:	2007883a 	mov	r3,r4
     444:	e0bff715 	stw	r2,-36(fp)
     448:	e0fff815 	stw	r3,-32(fp)
		alt_u64 Yn1NUM 	= ((YnU & 0x3FFF) << 48) + (YnMU << 14) + ((YnML & 0xFFFC0000) >> 18);
     44c:	e13ff917 	ldw	r4,-28(fp)
     450:	e17ffa17 	ldw	r5,-24(fp)
     454:	208fffcc 	andi	r2,r4,16383
     458:	2806703a 	and	r3,r5,zero
     45c:	100e943a 	slli	r7,r2,16
     460:	000d883a 	mov	r6,zero
     464:	e0bffb17 	ldw	r2,-20(fp)
     468:	100ad4ba 	srli	r5,r2,18
     46c:	e13ffc17 	ldw	r4,-16(fp)
     470:	e23ffb17 	ldw	r8,-20(fp)
     474:	200693ba 	slli	r3,r4,14
     478:	1946b03a 	or	r3,r3,r5
     47c:	400493ba 	slli	r2,r8,14
     480:	3089883a 	add	r4,r6,r2
     484:	2191803a 	cmpltu	r8,r4,r6
     488:	38cb883a 	add	r5,r7,r3
     48c:	4145883a 	add	r2,r8,r5
     490:	100b883a 	mov	r5,r2
     494:	200d883a 	mov	r6,r4
     498:	280f883a 	mov	r7,r5
     49c:	e13ffd17 	ldw	r4,-12(fp)
     4a0:	e17ffe17 	ldw	r5,-8(fp)
     4a4:	20bfff2c 	andhi	r2,r4,65532
     4a8:	2806703a 	and	r3,r5,zero
     4ac:	181093ba 	slli	r8,r3,14
     4b0:	1008d4ba 	srli	r4,r2,18
     4b4:	2208b03a 	or	r4,r4,r8
     4b8:	180ad4ba 	srli	r5,r3,18
     4bc:	3105883a 	add	r2,r6,r4
     4c0:	1191803a 	cmpltu	r8,r2,r6
     4c4:	3947883a 	add	r3,r7,r5
     4c8:	40c9883a 	add	r4,r8,r3
     4cc:	2007883a 	mov	r3,r4
     4d0:	e0bff515 	stw	r2,-44(fp)
     4d4:	e0fff615 	stw	r3,-40(fp)

		YnL				= *CH0_Yn2L;
     4d8:	d0a01117 	ldw	r2,-32700(gp)
     4dc:	10800017 	ldw	r2,0(r2)
     4e0:	e0bfff15 	stw	r2,-4(fp)
		YnML 			= *CH0_Yn2ML;
     4e4:	d0a01217 	ldw	r2,-32696(gp)
     4e8:	10800017 	ldw	r2,0(r2)
     4ec:	e0bffd15 	stw	r2,-12(fp)
     4f0:	1005d7fa 	srai	r2,r2,31
     4f4:	e0bffe15 	stw	r2,-8(fp)
		YnMU			= *CH0_Yn2MU;
     4f8:	d0a01317 	ldw	r2,-32692(gp)
     4fc:	10800017 	ldw	r2,0(r2)
     500:	e0bffb15 	stw	r2,-20(fp)
     504:	1005d7fa 	srai	r2,r2,31
     508:	e0bffc15 	stw	r2,-16(fp)
		YnU 			= *CH0_Yn2U;
     50c:	d0a01417 	ldw	r2,-32688(gp)
     510:	10800017 	ldw	r2,0(r2)
     514:	e0bff915 	stw	r2,-28(fp)
     518:	1005d7fa 	srai	r2,r2,31
     51c:	e0bffa15 	stw	r2,-24(fp)
		alt_u64 Yn2DEN 	= ((YnML & 0x3FFFF) << 32) + YnL;
     520:	e1bffd17 	ldw	r6,-12(fp)
     524:	01000134 	movhi	r4,4
     528:	213fffc4 	addi	r4,r4,-1
     52c:	e17ffe17 	ldw	r5,-8(fp)
     530:	3104703a 	and	r2,r6,r4
     534:	2806703a 	and	r3,r5,zero
     538:	100a983a 	sll	r5,r2,zero
     53c:	0009883a 	mov	r4,zero
     540:	e1bfff17 	ldw	r6,-4(fp)
     544:	000f883a 	mov	r7,zero
     548:	2185883a 	add	r2,r4,r6
     54c:	1111803a 	cmpltu	r8,r2,r4
     550:	29c7883a 	add	r3,r5,r7
     554:	40c9883a 	add	r4,r8,r3
     558:	2007883a 	mov	r3,r4
     55c:	e0bff315 	stw	r2,-52(fp)
     560:	e0fff415 	stw	r3,-48(fp)
		alt_u64 Yn2NUM 	= ((YnU & 0x3FFF) << 48) + (YnMU << 14) + ((YnML & 0xFFFC0000) >> 18);
     564:	e13ff917 	ldw	r4,-28(fp)
     568:	e17ffa17 	ldw	r5,-24(fp)
     56c:	208fffcc 	andi	r2,r4,16383
     570:	2806703a 	and	r3,r5,zero
     574:	100e943a 	slli	r7,r2,16
     578:	000d883a 	mov	r6,zero
     57c:	e0bffb17 	ldw	r2,-20(fp)
     580:	100ad4ba 	srli	r5,r2,18
     584:	e13ffc17 	ldw	r4,-16(fp)
     588:	e23ffb17 	ldw	r8,-20(fp)
     58c:	200693ba 	slli	r3,r4,14
     590:	1946b03a 	or	r3,r3,r5
     594:	400493ba 	slli	r2,r8,14
     598:	3089883a 	add	r4,r6,r2
     59c:	2191803a 	cmpltu	r8,r4,r6
     5a0:	38cb883a 	add	r5,r7,r3
     5a4:	4145883a 	add	r2,r8,r5
     5a8:	100b883a 	mov	r5,r2
     5ac:	200d883a 	mov	r6,r4
     5b0:	280f883a 	mov	r7,r5
     5b4:	e13ffd17 	ldw	r4,-12(fp)
     5b8:	e17ffe17 	ldw	r5,-8(fp)
     5bc:	20bfff2c 	andhi	r2,r4,65532
     5c0:	2806703a 	and	r3,r5,zero
     5c4:	181093ba 	slli	r8,r3,14
     5c8:	1008d4ba 	srli	r4,r2,18
     5cc:	2208b03a 	or	r4,r4,r8
     5d0:	180ad4ba 	srli	r5,r3,18
     5d4:	3105883a 	add	r2,r6,r4
     5d8:	1191803a 	cmpltu	r8,r2,r6
     5dc:	3947883a 	add	r3,r7,r5
     5e0:	40c9883a 	add	r4,r8,r3
     5e4:	2007883a 	mov	r3,r4
     5e8:	e0bff115 	stw	r2,-60(fp)
     5ec:	e0fff215 	stw	r3,-56(fp)

		YnL				= *CH0_Yn3L;
     5f0:	d0a01517 	ldw	r2,-32684(gp)
     5f4:	10800017 	ldw	r2,0(r2)
     5f8:	e0bfff15 	stw	r2,-4(fp)
		YnML 			= *CH0_Yn3ML;
     5fc:	d0a01617 	ldw	r2,-32680(gp)
     600:	10800017 	ldw	r2,0(r2)
     604:	e0bffd15 	stw	r2,-12(fp)
     608:	1005d7fa 	srai	r2,r2,31
     60c:	e0bffe15 	stw	r2,-8(fp)
		YnMU			= *CH0_Yn3MU;
     610:	d0a01717 	ldw	r2,-32676(gp)
     614:	10800017 	ldw	r2,0(r2)
     618:	e0bffb15 	stw	r2,-20(fp)
     61c:	1005d7fa 	srai	r2,r2,31
     620:	e0bffc15 	stw	r2,-16(fp)
		YnU 			= *CH0_Yn3U;
     624:	d0a01817 	ldw	r2,-32672(gp)
     628:	10800017 	ldw	r2,0(r2)
     62c:	e0bff915 	stw	r2,-28(fp)
     630:	1005d7fa 	srai	r2,r2,31
     634:	e0bffa15 	stw	r2,-24(fp)
		alt_u64 Yn3DEN 	= ((YnML & 0x3FFFF) << 32) + YnL;
     638:	e1bffd17 	ldw	r6,-12(fp)
     63c:	01000134 	movhi	r4,4
     640:	213fffc4 	addi	r4,r4,-1
     644:	e17ffe17 	ldw	r5,-8(fp)
     648:	3104703a 	and	r2,r6,r4
     64c:	2806703a 	and	r3,r5,zero
     650:	100a983a 	sll	r5,r2,zero
     654:	0009883a 	mov	r4,zero
     658:	e1bfff17 	ldw	r6,-4(fp)
     65c:	000f883a 	mov	r7,zero
     660:	2185883a 	add	r2,r4,r6
     664:	1111803a 	cmpltu	r8,r2,r4
     668:	29c7883a 	add	r3,r5,r7
     66c:	40c9883a 	add	r4,r8,r3
     670:	2007883a 	mov	r3,r4
     674:	e0bfef15 	stw	r2,-68(fp)
     678:	e0fff015 	stw	r3,-64(fp)
		alt_u64 Yn3NUM 	= ((YnU & 0x3FFF) << 48) + (YnMU << 14) + ((YnML & 0xFFFC0000) >> 18);
     67c:	e13ff917 	ldw	r4,-28(fp)
     680:	e17ffa17 	ldw	r5,-24(fp)
     684:	208fffcc 	andi	r2,r4,16383
     688:	2806703a 	and	r3,r5,zero
     68c:	100e943a 	slli	r7,r2,16
     690:	000d883a 	mov	r6,zero
     694:	e0bffb17 	ldw	r2,-20(fp)
     698:	100ad4ba 	srli	r5,r2,18
     69c:	e13ffc17 	ldw	r4,-16(fp)
     6a0:	e23ffb17 	ldw	r8,-20(fp)
     6a4:	200693ba 	slli	r3,r4,14
     6a8:	1946b03a 	or	r3,r3,r5
     6ac:	400493ba 	slli	r2,r8,14
     6b0:	3089883a 	add	r4,r6,r2
     6b4:	2191803a 	cmpltu	r8,r4,r6
     6b8:	38cb883a 	add	r5,r7,r3
     6bc:	4145883a 	add	r2,r8,r5
     6c0:	100b883a 	mov	r5,r2
     6c4:	200d883a 	mov	r6,r4
     6c8:	280f883a 	mov	r7,r5
     6cc:	e13ffd17 	ldw	r4,-12(fp)
     6d0:	e17ffe17 	ldw	r5,-8(fp)
     6d4:	20bfff2c 	andhi	r2,r4,65532
     6d8:	2806703a 	and	r3,r5,zero
     6dc:	181093ba 	slli	r8,r3,14
     6e0:	1008d4ba 	srli	r4,r2,18
     6e4:	2208b03a 	or	r4,r4,r8
     6e8:	180ad4ba 	srli	r5,r3,18
     6ec:	3105883a 	add	r2,r6,r4
     6f0:	1191803a 	cmpltu	r8,r2,r6
     6f4:	3947883a 	add	r3,r7,r5
     6f8:	40c9883a 	add	r4,r8,r3
     6fc:	2007883a 	mov	r3,r4
     700:	e0bfed15 	stw	r2,-76(fp)
     704:	e0ffee15 	stw	r3,-72(fp)

		int n 			= *CH0_TIME;
     708:	d0a00c17 	ldw	r2,-32720(gp)
     70c:	10800017 	ldw	r2,0(r2)
     710:	e0bfec15 	stw	r2,-80(fp)

		CH0_nOut = qInterp(1000000, n-2, Yn1NUM, Yn1DEN, Yn2NUM, Yn2DEN, Yn3NUM, Yn3DEN);
     714:	e0bfec17 	ldw	r2,-80(fp)
     718:	117fff84 	addi	r5,r2,-2
     71c:	e0bff717 	ldw	r2,-36(fp)
     720:	d8800015 	stw	r2,0(sp)
     724:	e0bff817 	ldw	r2,-32(fp)
     728:	d8800115 	stw	r2,4(sp)
     72c:	e0bff117 	ldw	r2,-60(fp)
     730:	d8800215 	stw	r2,8(sp)
     734:	e0bff217 	ldw	r2,-56(fp)
     738:	d8800315 	stw	r2,12(sp)
     73c:	e0bff317 	ldw	r2,-52(fp)
     740:	d8800415 	stw	r2,16(sp)
     744:	e0bff417 	ldw	r2,-48(fp)
     748:	d8800515 	stw	r2,20(sp)
     74c:	e0bfed17 	ldw	r2,-76(fp)
     750:	d8800615 	stw	r2,24(sp)
     754:	e0bfee17 	ldw	r2,-72(fp)
     758:	d8800715 	stw	r2,28(sp)
     75c:	e0bfef17 	ldw	r2,-68(fp)
     760:	d8800815 	stw	r2,32(sp)
     764:	e0bff017 	ldw	r2,-64(fp)
     768:	d8800915 	stw	r2,36(sp)
     76c:	010003f4 	movhi	r4,15
     770:	21109004 	addi	r4,r4,16960
     774:	e1bff517 	ldw	r6,-44(fp)
     778:	e1fff617 	ldw	r7,-40(fp)
     77c:	00016040 	call	1604 <qInterp>
     780:	1009883a 	mov	r4,r2
     784:	180b883a 	mov	r5,r3
     788:	d126c915 	stw	r4,-25820(gp)
     78c:	00800074 	movhi	r2,1
     790:	1087d704 	addi	r2,r2,8028
     794:	11400015 	stw	r5,0(r2)
     798:	00000406 	br	7ac <sampleChannels+0x430>
	} else {
		CH0_nOut = 0;
     79c:	d026c915 	stw	zero,-25820(gp)
     7a0:	00800074 	movhi	r2,1
     7a4:	1087d704 	addi	r2,r2,8028
     7a8:	10000015 	stw	zero,0(r2)
	}

	usleep(0.001 seconds);
     7ac:	0100fa04 	movi	r4,1000
     7b0:	000b2100 	call	b210 <usleep>

	if (*CH1_peakFound) {
     7b4:	d0a01b17 	ldw	r2,-32660(gp)
     7b8:	10800017 	ldw	r2,0(r2)
     7bc:	1005003a 	cmpeq	r2,r2,zero
     7c0:	1000fc1e 	bne	r2,zero,bb4 <sampleChannels+0x838>
		*CH1_RD = 0x1;
     7c4:	d0e01c17 	ldw	r3,-32656(gp)
     7c8:	00800044 	movi	r2,1
     7cc:	18800015 	stw	r2,0(r3)
		*CH1_RD = 0x0;
     7d0:	d0a01c17 	ldw	r2,-32656(gp)
     7d4:	10000015 	stw	zero,0(r2)

		YnL				= *CH1_Yn1L;
     7d8:	d0a01e17 	ldw	r2,-32648(gp)
     7dc:	10800017 	ldw	r2,0(r2)
     7e0:	e0bfff15 	stw	r2,-4(fp)
		YnML 			= *CH1_Yn1ML;
     7e4:	d0a01f17 	ldw	r2,-32644(gp)
     7e8:	10800017 	ldw	r2,0(r2)
     7ec:	e0bffd15 	stw	r2,-12(fp)
     7f0:	1005d7fa 	srai	r2,r2,31
     7f4:	e0bffe15 	stw	r2,-8(fp)
		YnMU			= *CH1_Yn1MU;
     7f8:	d0a02017 	ldw	r2,-32640(gp)
     7fc:	10800017 	ldw	r2,0(r2)
     800:	e0bffb15 	stw	r2,-20(fp)
     804:	1005d7fa 	srai	r2,r2,31
     808:	e0bffc15 	stw	r2,-16(fp)
		YnU 			= *CH1_Yn1U;
     80c:	d0a02117 	ldw	r2,-32636(gp)
     810:	10800017 	ldw	r2,0(r2)
     814:	e0bff915 	stw	r2,-28(fp)
     818:	1005d7fa 	srai	r2,r2,31
     81c:	e0bffa15 	stw	r2,-24(fp)
		alt_u64 Yn1DEN 	= ((YnML & 0x3FFFF) << 32) + YnL;
     820:	e1bffd17 	ldw	r6,-12(fp)
     824:	01000134 	movhi	r4,4
     828:	213fffc4 	addi	r4,r4,-1
     82c:	e17ffe17 	ldw	r5,-8(fp)
     830:	3104703a 	and	r2,r6,r4
     834:	2806703a 	and	r3,r5,zero
     838:	100a983a 	sll	r5,r2,zero
     83c:	0009883a 	mov	r4,zero
     840:	e1bfff17 	ldw	r6,-4(fp)
     844:	000f883a 	mov	r7,zero
     848:	2185883a 	add	r2,r4,r6
     84c:	1111803a 	cmpltu	r8,r2,r4
     850:	29c7883a 	add	r3,r5,r7
     854:	40c9883a 	add	r4,r8,r3
     858:	2007883a 	mov	r3,r4
     85c:	e0bfea15 	stw	r2,-88(fp)
     860:	e0ffeb15 	stw	r3,-84(fp)
		alt_u64 Yn1NUM 	= ((YnU & 0x3FFF) << 48) + (YnMU << 14) + ((YnML & 0xFFFC0000) >> 18);
     864:	e13ff917 	ldw	r4,-28(fp)
     868:	e17ffa17 	ldw	r5,-24(fp)
     86c:	208fffcc 	andi	r2,r4,16383
     870:	2806703a 	and	r3,r5,zero
     874:	100e943a 	slli	r7,r2,16
     878:	000d883a 	mov	r6,zero
     87c:	e0bffb17 	ldw	r2,-20(fp)
     880:	100ad4ba 	srli	r5,r2,18
     884:	e13ffc17 	ldw	r4,-16(fp)
     888:	e23ffb17 	ldw	r8,-20(fp)
     88c:	200693ba 	slli	r3,r4,14
     890:	1946b03a 	or	r3,r3,r5
     894:	400493ba 	slli	r2,r8,14
     898:	3089883a 	add	r4,r6,r2
     89c:	2191803a 	cmpltu	r8,r4,r6
     8a0:	38cb883a 	add	r5,r7,r3
     8a4:	4145883a 	add	r2,r8,r5
     8a8:	100b883a 	mov	r5,r2
     8ac:	200d883a 	mov	r6,r4
     8b0:	280f883a 	mov	r7,r5
     8b4:	e13ffd17 	ldw	r4,-12(fp)
     8b8:	e17ffe17 	ldw	r5,-8(fp)
     8bc:	20bfff2c 	andhi	r2,r4,65532
     8c0:	2806703a 	and	r3,r5,zero
     8c4:	181093ba 	slli	r8,r3,14
     8c8:	1008d4ba 	srli	r4,r2,18
     8cc:	2208b03a 	or	r4,r4,r8
     8d0:	180ad4ba 	srli	r5,r3,18
     8d4:	3105883a 	add	r2,r6,r4
     8d8:	1191803a 	cmpltu	r8,r2,r6
     8dc:	3947883a 	add	r3,r7,r5
     8e0:	40c9883a 	add	r4,r8,r3
     8e4:	2007883a 	mov	r3,r4
     8e8:	e0bfe815 	stw	r2,-96(fp)
     8ec:	e0ffe915 	stw	r3,-92(fp)

		YnL				= *CH1_Yn2L;
     8f0:	d0a02217 	ldw	r2,-32632(gp)
     8f4:	10800017 	ldw	r2,0(r2)
     8f8:	e0bfff15 	stw	r2,-4(fp)
		YnML 			= *CH1_Yn2ML;
     8fc:	d0a02317 	ldw	r2,-32628(gp)
     900:	10800017 	ldw	r2,0(r2)
     904:	e0bffd15 	stw	r2,-12(fp)
     908:	1005d7fa 	srai	r2,r2,31
     90c:	e0bffe15 	stw	r2,-8(fp)
		YnMU			= *CH1_Yn2MU;
     910:	d0a02417 	ldw	r2,-32624(gp)
     914:	10800017 	ldw	r2,0(r2)
     918:	e0bffb15 	stw	r2,-20(fp)
     91c:	1005d7fa 	srai	r2,r2,31
     920:	e0bffc15 	stw	r2,-16(fp)
		YnU 			= *CH1_Yn2U;
     924:	d0a02517 	ldw	r2,-32620(gp)
     928:	10800017 	ldw	r2,0(r2)
     92c:	e0bff915 	stw	r2,-28(fp)
     930:	1005d7fa 	srai	r2,r2,31
     934:	e0bffa15 	stw	r2,-24(fp)
		alt_u64 Yn2DEN 	= ((YnML & 0x3FFFF) << 32) + YnL;
     938:	e1bffd17 	ldw	r6,-12(fp)
     93c:	01000134 	movhi	r4,4
     940:	213fffc4 	addi	r4,r4,-1
     944:	e17ffe17 	ldw	r5,-8(fp)
     948:	3104703a 	and	r2,r6,r4
     94c:	2806703a 	and	r3,r5,zero
     950:	100a983a 	sll	r5,r2,zero
     954:	0009883a 	mov	r4,zero
     958:	e1bfff17 	ldw	r6,-4(fp)
     95c:	000f883a 	mov	r7,zero
     960:	2185883a 	add	r2,r4,r6
     964:	1111803a 	cmpltu	r8,r2,r4
     968:	29c7883a 	add	r3,r5,r7
     96c:	40c9883a 	add	r4,r8,r3
     970:	2007883a 	mov	r3,r4
     974:	e0bfe615 	stw	r2,-104(fp)
     978:	e0ffe715 	stw	r3,-100(fp)
		alt_u64 Yn2NUM 	= ((YnU & 0x3FFF) << 48) + (YnMU << 14) + ((YnML & 0xFFFC0000) >> 18);
     97c:	e13ff917 	ldw	r4,-28(fp)
     980:	e17ffa17 	ldw	r5,-24(fp)
     984:	208fffcc 	andi	r2,r4,16383
     988:	2806703a 	and	r3,r5,zero
     98c:	100e943a 	slli	r7,r2,16
     990:	000d883a 	mov	r6,zero
     994:	e0bffb17 	ldw	r2,-20(fp)
     998:	100ad4ba 	srli	r5,r2,18
     99c:	e13ffc17 	ldw	r4,-16(fp)
     9a0:	e23ffb17 	ldw	r8,-20(fp)
     9a4:	200693ba 	slli	r3,r4,14
     9a8:	1946b03a 	or	r3,r3,r5
     9ac:	400493ba 	slli	r2,r8,14
     9b0:	3089883a 	add	r4,r6,r2
     9b4:	2191803a 	cmpltu	r8,r4,r6
     9b8:	38cb883a 	add	r5,r7,r3
     9bc:	4145883a 	add	r2,r8,r5
     9c0:	100b883a 	mov	r5,r2
     9c4:	200d883a 	mov	r6,r4
     9c8:	280f883a 	mov	r7,r5
     9cc:	e13ffd17 	ldw	r4,-12(fp)
     9d0:	e17ffe17 	ldw	r5,-8(fp)
     9d4:	20bfff2c 	andhi	r2,r4,65532
     9d8:	2806703a 	and	r3,r5,zero
     9dc:	181093ba 	slli	r8,r3,14
     9e0:	1008d4ba 	srli	r4,r2,18
     9e4:	2208b03a 	or	r4,r4,r8
     9e8:	180ad4ba 	srli	r5,r3,18
     9ec:	3105883a 	add	r2,r6,r4
     9f0:	1191803a 	cmpltu	r8,r2,r6
     9f4:	3947883a 	add	r3,r7,r5
     9f8:	40c9883a 	add	r4,r8,r3
     9fc:	2007883a 	mov	r3,r4
     a00:	e0bfe415 	stw	r2,-112(fp)
     a04:	e0ffe515 	stw	r3,-108(fp)

		YnL				= *CH1_Yn3L;
     a08:	d0a02617 	ldw	r2,-32616(gp)
     a0c:	10800017 	ldw	r2,0(r2)
     a10:	e0bfff15 	stw	r2,-4(fp)
		YnML 			= *CH1_Yn3ML;
     a14:	d0a02717 	ldw	r2,-32612(gp)
     a18:	10800017 	ldw	r2,0(r2)
     a1c:	e0bffd15 	stw	r2,-12(fp)
     a20:	1005d7fa 	srai	r2,r2,31
     a24:	e0bffe15 	stw	r2,-8(fp)
		YnMU			= *CH1_Yn3MU;
     a28:	d0a02817 	ldw	r2,-32608(gp)
     a2c:	10800017 	ldw	r2,0(r2)
     a30:	e0bffb15 	stw	r2,-20(fp)
     a34:	1005d7fa 	srai	r2,r2,31
     a38:	e0bffc15 	stw	r2,-16(fp)
		YnU 			= *CH1_Yn3U;
     a3c:	d0a02917 	ldw	r2,-32604(gp)
     a40:	10800017 	ldw	r2,0(r2)
     a44:	e0bff915 	stw	r2,-28(fp)
     a48:	1005d7fa 	srai	r2,r2,31
     a4c:	e0bffa15 	stw	r2,-24(fp)
		alt_u64 Yn3DEN 	= ((YnML & 0x3FFFF) << 32) + YnL;
     a50:	e1bffd17 	ldw	r6,-12(fp)
     a54:	01000134 	movhi	r4,4
     a58:	213fffc4 	addi	r4,r4,-1
     a5c:	e17ffe17 	ldw	r5,-8(fp)
     a60:	3104703a 	and	r2,r6,r4
     a64:	2806703a 	and	r3,r5,zero
     a68:	100a983a 	sll	r5,r2,zero
     a6c:	0009883a 	mov	r4,zero
     a70:	e1bfff17 	ldw	r6,-4(fp)
     a74:	000f883a 	mov	r7,zero
     a78:	2185883a 	add	r2,r4,r6
     a7c:	1111803a 	cmpltu	r8,r2,r4
     a80:	29c7883a 	add	r3,r5,r7
     a84:	40c9883a 	add	r4,r8,r3
     a88:	2007883a 	mov	r3,r4
     a8c:	e0bfe215 	stw	r2,-120(fp)
     a90:	e0ffe315 	stw	r3,-116(fp)
		alt_u64 Yn3NUM 	= ((YnU & 0x3FFF) << 48) + (YnMU << 14) + ((YnML & 0xFFFC0000) >> 18);
     a94:	e13ff917 	ldw	r4,-28(fp)
     a98:	e17ffa17 	ldw	r5,-24(fp)
     a9c:	208fffcc 	andi	r2,r4,16383
     aa0:	2806703a 	and	r3,r5,zero
     aa4:	100e943a 	slli	r7,r2,16
     aa8:	000d883a 	mov	r6,zero
     aac:	e0bffb17 	ldw	r2,-20(fp)
     ab0:	100ad4ba 	srli	r5,r2,18
     ab4:	e13ffc17 	ldw	r4,-16(fp)
     ab8:	e23ffb17 	ldw	r8,-20(fp)
     abc:	200693ba 	slli	r3,r4,14
     ac0:	1946b03a 	or	r3,r3,r5
     ac4:	400493ba 	slli	r2,r8,14
     ac8:	3089883a 	add	r4,r6,r2
     acc:	2191803a 	cmpltu	r8,r4,r6
     ad0:	38cb883a 	add	r5,r7,r3
     ad4:	4145883a 	add	r2,r8,r5
     ad8:	100b883a 	mov	r5,r2
     adc:	200d883a 	mov	r6,r4
     ae0:	280f883a 	mov	r7,r5
     ae4:	e13ffd17 	ldw	r4,-12(fp)
     ae8:	e17ffe17 	ldw	r5,-8(fp)
     aec:	20bfff2c 	andhi	r2,r4,65532
     af0:	2806703a 	and	r3,r5,zero
     af4:	181093ba 	slli	r8,r3,14
     af8:	1008d4ba 	srli	r4,r2,18
     afc:	2208b03a 	or	r4,r4,r8
     b00:	180ad4ba 	srli	r5,r3,18
     b04:	3105883a 	add	r2,r6,r4
     b08:	1191803a 	cmpltu	r8,r2,r6
     b0c:	3947883a 	add	r3,r7,r5
     b10:	40c9883a 	add	r4,r8,r3
     b14:	2007883a 	mov	r3,r4
     b18:	e0bfe015 	stw	r2,-128(fp)
     b1c:	e0ffe115 	stw	r3,-124(fp)

		int n 			= *CH1_TIME;
     b20:	d0a01d17 	ldw	r2,-32652(gp)
     b24:	10800017 	ldw	r2,0(r2)
     b28:	e0bfdf15 	stw	r2,-132(fp)

		CH1_nOut = qInterp(1000000, n-2, Yn1NUM, Yn1DEN, Yn2NUM, Yn2DEN, Yn3NUM, Yn3DEN);
     b2c:	e0bfdf17 	ldw	r2,-132(fp)
     b30:	117fff84 	addi	r5,r2,-2
     b34:	e0bfea17 	ldw	r2,-88(fp)
     b38:	d8800015 	stw	r2,0(sp)
     b3c:	e0bfeb17 	ldw	r2,-84(fp)
     b40:	d8800115 	stw	r2,4(sp)
     b44:	e0bfe417 	ldw	r2,-112(fp)
     b48:	d8800215 	stw	r2,8(sp)
     b4c:	e0bfe517 	ldw	r2,-108(fp)
     b50:	d8800315 	stw	r2,12(sp)
     b54:	e0bfe617 	ldw	r2,-104(fp)
     b58:	d8800415 	stw	r2,16(sp)
     b5c:	e0bfe717 	ldw	r2,-100(fp)
     b60:	d8800515 	stw	r2,20(sp)
     b64:	e0bfe017 	ldw	r2,-128(fp)
     b68:	d8800615 	stw	r2,24(sp)
     b6c:	e0bfe117 	ldw	r2,-124(fp)
     b70:	d8800715 	stw	r2,28(sp)
     b74:	e0bfe217 	ldw	r2,-120(fp)
     b78:	d8800815 	stw	r2,32(sp)
     b7c:	e0bfe317 	ldw	r2,-116(fp)
     b80:	d8800915 	stw	r2,36(sp)
     b84:	010003f4 	movhi	r4,15
     b88:	21109004 	addi	r4,r4,16960
     b8c:	e1bfe817 	ldw	r6,-96(fp)
     b90:	e1ffe917 	ldw	r7,-92(fp)
     b94:	00016040 	call	1604 <qInterp>
     b98:	1009883a 	mov	r4,r2
     b9c:	180b883a 	mov	r5,r3
     ba0:	d126c715 	stw	r4,-25828(gp)
     ba4:	00800074 	movhi	r2,1
     ba8:	1087d504 	addi	r2,r2,8020
     bac:	11400015 	stw	r5,0(r2)
     bb0:	00000406 	br	bc4 <sampleChannels+0x848>
	} else {
		CH1_nOut = 0;
     bb4:	d026c715 	stw	zero,-25828(gp)
     bb8:	00800074 	movhi	r2,1
     bbc:	1087d504 	addi	r2,r2,8020
     bc0:	10000015 	stw	zero,0(r2)
	}

	usleep(0.001 seconds);
     bc4:	0100fa04 	movi	r4,1000
     bc8:	000b2100 	call	b210 <usleep>

	if (*CH2_peakFound) {
     bcc:	d0a02c17 	ldw	r2,-32592(gp)
     bd0:	10800017 	ldw	r2,0(r2)
     bd4:	1005003a 	cmpeq	r2,r2,zero
     bd8:	1000fc1e 	bne	r2,zero,fcc <sampleChannels+0xc50>
		*CH2_RD = 0x1;
     bdc:	d0e02d17 	ldw	r3,-32588(gp)
     be0:	00800044 	movi	r2,1
     be4:	18800015 	stw	r2,0(r3)
		*CH2_RD = 0x0;
     be8:	d0a02d17 	ldw	r2,-32588(gp)
     bec:	10000015 	stw	zero,0(r2)

		YnL				= *CH2_Yn1L;
     bf0:	d0a02f17 	ldw	r2,-32580(gp)
     bf4:	10800017 	ldw	r2,0(r2)
     bf8:	e0bfff15 	stw	r2,-4(fp)
		YnML 			= *CH2_Yn1ML;
     bfc:	d0a03017 	ldw	r2,-32576(gp)
     c00:	10800017 	ldw	r2,0(r2)
     c04:	e0bffd15 	stw	r2,-12(fp)
     c08:	1005d7fa 	srai	r2,r2,31
     c0c:	e0bffe15 	stw	r2,-8(fp)
		YnMU			= *CH2_Yn1MU;
     c10:	d0a03117 	ldw	r2,-32572(gp)
     c14:	10800017 	ldw	r2,0(r2)
     c18:	e0bffb15 	stw	r2,-20(fp)
     c1c:	1005d7fa 	srai	r2,r2,31
     c20:	e0bffc15 	stw	r2,-16(fp)
		YnU 			= *CH2_Yn1U;
     c24:	d0a03217 	ldw	r2,-32568(gp)
     c28:	10800017 	ldw	r2,0(r2)
     c2c:	e0bff915 	stw	r2,-28(fp)
     c30:	1005d7fa 	srai	r2,r2,31
     c34:	e0bffa15 	stw	r2,-24(fp)
		alt_u64 Yn1DEN 	= ((YnML & 0x3FFFF) << 32) + YnL;
     c38:	e1bffd17 	ldw	r6,-12(fp)
     c3c:	01000134 	movhi	r4,4
     c40:	213fffc4 	addi	r4,r4,-1
     c44:	e17ffe17 	ldw	r5,-8(fp)
     c48:	3104703a 	and	r2,r6,r4
     c4c:	2806703a 	and	r3,r5,zero
     c50:	100a983a 	sll	r5,r2,zero
     c54:	0009883a 	mov	r4,zero
     c58:	e1bfff17 	ldw	r6,-4(fp)
     c5c:	000f883a 	mov	r7,zero
     c60:	2185883a 	add	r2,r4,r6
     c64:	1111803a 	cmpltu	r8,r2,r4
     c68:	29c7883a 	add	r3,r5,r7
     c6c:	40c9883a 	add	r4,r8,r3
     c70:	2007883a 	mov	r3,r4
     c74:	e0bfdd15 	stw	r2,-140(fp)
     c78:	e0ffde15 	stw	r3,-136(fp)
		alt_u64 Yn1NUM 	= ((YnU & 0x3FFF) << 48) + (YnMU << 14) + ((YnML & 0xFFFC0000) >> 18);
     c7c:	e13ff917 	ldw	r4,-28(fp)
     c80:	e17ffa17 	ldw	r5,-24(fp)
     c84:	208fffcc 	andi	r2,r4,16383
     c88:	2806703a 	and	r3,r5,zero
     c8c:	100e943a 	slli	r7,r2,16
     c90:	000d883a 	mov	r6,zero
     c94:	e0bffb17 	ldw	r2,-20(fp)
     c98:	100ad4ba 	srli	r5,r2,18
     c9c:	e13ffc17 	ldw	r4,-16(fp)
     ca0:	e23ffb17 	ldw	r8,-20(fp)
     ca4:	200693ba 	slli	r3,r4,14
     ca8:	1946b03a 	or	r3,r3,r5
     cac:	400493ba 	slli	r2,r8,14
     cb0:	3089883a 	add	r4,r6,r2
     cb4:	2191803a 	cmpltu	r8,r4,r6
     cb8:	38cb883a 	add	r5,r7,r3
     cbc:	4145883a 	add	r2,r8,r5
     cc0:	100b883a 	mov	r5,r2
     cc4:	200d883a 	mov	r6,r4
     cc8:	280f883a 	mov	r7,r5
     ccc:	e13ffd17 	ldw	r4,-12(fp)
     cd0:	e17ffe17 	ldw	r5,-8(fp)
     cd4:	20bfff2c 	andhi	r2,r4,65532
     cd8:	2806703a 	and	r3,r5,zero
     cdc:	181093ba 	slli	r8,r3,14
     ce0:	1008d4ba 	srli	r4,r2,18
     ce4:	2208b03a 	or	r4,r4,r8
     ce8:	180ad4ba 	srli	r5,r3,18
     cec:	3105883a 	add	r2,r6,r4
     cf0:	1191803a 	cmpltu	r8,r2,r6
     cf4:	3947883a 	add	r3,r7,r5
     cf8:	40c9883a 	add	r4,r8,r3
     cfc:	2007883a 	mov	r3,r4
     d00:	e0bfdb15 	stw	r2,-148(fp)
     d04:	e0ffdc15 	stw	r3,-144(fp)

		YnL				= *CH2_Yn2L;
     d08:	d0a03317 	ldw	r2,-32564(gp)
     d0c:	10800017 	ldw	r2,0(r2)
     d10:	e0bfff15 	stw	r2,-4(fp)
		YnML 			= *CH2_Yn2ML;
     d14:	d0a03417 	ldw	r2,-32560(gp)
     d18:	10800017 	ldw	r2,0(r2)
     d1c:	e0bffd15 	stw	r2,-12(fp)
     d20:	1005d7fa 	srai	r2,r2,31
     d24:	e0bffe15 	stw	r2,-8(fp)
		YnMU			= *CH2_Yn2MU;
     d28:	d0a03517 	ldw	r2,-32556(gp)
     d2c:	10800017 	ldw	r2,0(r2)
     d30:	e0bffb15 	stw	r2,-20(fp)
     d34:	1005d7fa 	srai	r2,r2,31
     d38:	e0bffc15 	stw	r2,-16(fp)
		YnU 			= *CH2_Yn2U;
     d3c:	d0a03617 	ldw	r2,-32552(gp)
     d40:	10800017 	ldw	r2,0(r2)
     d44:	e0bff915 	stw	r2,-28(fp)
     d48:	1005d7fa 	srai	r2,r2,31
     d4c:	e0bffa15 	stw	r2,-24(fp)
		alt_u64 Yn2DEN 	= ((YnML & 0x3FFFF) << 32) + YnL;
     d50:	e1bffd17 	ldw	r6,-12(fp)
     d54:	01000134 	movhi	r4,4
     d58:	213fffc4 	addi	r4,r4,-1
     d5c:	e17ffe17 	ldw	r5,-8(fp)
     d60:	3104703a 	and	r2,r6,r4
     d64:	2806703a 	and	r3,r5,zero
     d68:	100a983a 	sll	r5,r2,zero
     d6c:	0009883a 	mov	r4,zero
     d70:	e1bfff17 	ldw	r6,-4(fp)
     d74:	000f883a 	mov	r7,zero
     d78:	2185883a 	add	r2,r4,r6
     d7c:	1111803a 	cmpltu	r8,r2,r4
     d80:	29c7883a 	add	r3,r5,r7
     d84:	40c9883a 	add	r4,r8,r3
     d88:	2007883a 	mov	r3,r4
     d8c:	e0bfd915 	stw	r2,-156(fp)
     d90:	e0ffda15 	stw	r3,-152(fp)
		alt_u64 Yn2NUM 	= ((YnU & 0x3FFF) << 48) + (YnMU << 14) + ((YnML & 0xFFFC0000) >> 18);
     d94:	e13ff917 	ldw	r4,-28(fp)
     d98:	e17ffa17 	ldw	r5,-24(fp)
     d9c:	208fffcc 	andi	r2,r4,16383
     da0:	2806703a 	and	r3,r5,zero
     da4:	100e943a 	slli	r7,r2,16
     da8:	000d883a 	mov	r6,zero
     dac:	e0bffb17 	ldw	r2,-20(fp)
     db0:	100ad4ba 	srli	r5,r2,18
     db4:	e13ffc17 	ldw	r4,-16(fp)
     db8:	e23ffb17 	ldw	r8,-20(fp)
     dbc:	200693ba 	slli	r3,r4,14
     dc0:	1946b03a 	or	r3,r3,r5
     dc4:	400493ba 	slli	r2,r8,14
     dc8:	3089883a 	add	r4,r6,r2
     dcc:	2191803a 	cmpltu	r8,r4,r6
     dd0:	38cb883a 	add	r5,r7,r3
     dd4:	4145883a 	add	r2,r8,r5
     dd8:	100b883a 	mov	r5,r2
     ddc:	200d883a 	mov	r6,r4
     de0:	280f883a 	mov	r7,r5
     de4:	e13ffd17 	ldw	r4,-12(fp)
     de8:	e17ffe17 	ldw	r5,-8(fp)
     dec:	20bfff2c 	andhi	r2,r4,65532
     df0:	2806703a 	and	r3,r5,zero
     df4:	181093ba 	slli	r8,r3,14
     df8:	1008d4ba 	srli	r4,r2,18
     dfc:	2208b03a 	or	r4,r4,r8
     e00:	180ad4ba 	srli	r5,r3,18
     e04:	3105883a 	add	r2,r6,r4
     e08:	1191803a 	cmpltu	r8,r2,r6
     e0c:	3947883a 	add	r3,r7,r5
     e10:	40c9883a 	add	r4,r8,r3
     e14:	2007883a 	mov	r3,r4
     e18:	e0bfd715 	stw	r2,-164(fp)
     e1c:	e0ffd815 	stw	r3,-160(fp)

		YnL				= *CH2_Yn3L;
     e20:	d0a03717 	ldw	r2,-32548(gp)
     e24:	10800017 	ldw	r2,0(r2)
     e28:	e0bfff15 	stw	r2,-4(fp)
		YnML 			= *CH2_Yn3ML;
     e2c:	d0a03817 	ldw	r2,-32544(gp)
     e30:	10800017 	ldw	r2,0(r2)
     e34:	e0bffd15 	stw	r2,-12(fp)
     e38:	1005d7fa 	srai	r2,r2,31
     e3c:	e0bffe15 	stw	r2,-8(fp)
		YnMU			= *CH2_Yn3MU;
     e40:	d0a03917 	ldw	r2,-32540(gp)
     e44:	10800017 	ldw	r2,0(r2)
     e48:	e0bffb15 	stw	r2,-20(fp)
     e4c:	1005d7fa 	srai	r2,r2,31
     e50:	e0bffc15 	stw	r2,-16(fp)
		YnU 			= *CH2_Yn3U;
     e54:	d0a03a17 	ldw	r2,-32536(gp)
     e58:	10800017 	ldw	r2,0(r2)
     e5c:	e0bff915 	stw	r2,-28(fp)
     e60:	1005d7fa 	srai	r2,r2,31
     e64:	e0bffa15 	stw	r2,-24(fp)
		alt_u64 Yn3DEN 	= ((YnML & 0x3FFFF) << 32) + YnL;
     e68:	e1bffd17 	ldw	r6,-12(fp)
     e6c:	01000134 	movhi	r4,4
     e70:	213fffc4 	addi	r4,r4,-1
     e74:	e17ffe17 	ldw	r5,-8(fp)
     e78:	3104703a 	and	r2,r6,r4
     e7c:	2806703a 	and	r3,r5,zero
     e80:	100a983a 	sll	r5,r2,zero
     e84:	0009883a 	mov	r4,zero
     e88:	e1bfff17 	ldw	r6,-4(fp)
     e8c:	000f883a 	mov	r7,zero
     e90:	2185883a 	add	r2,r4,r6
     e94:	1111803a 	cmpltu	r8,r2,r4
     e98:	29c7883a 	add	r3,r5,r7
     e9c:	40c9883a 	add	r4,r8,r3
     ea0:	2007883a 	mov	r3,r4
     ea4:	e0bfd515 	stw	r2,-172(fp)
     ea8:	e0ffd615 	stw	r3,-168(fp)
		alt_u64 Yn3NUM 	= ((YnU & 0x3FFF) << 48) + (YnMU << 14) + ((YnML & 0xFFFC0000) >> 18);
     eac:	e13ff917 	ldw	r4,-28(fp)
     eb0:	e17ffa17 	ldw	r5,-24(fp)
     eb4:	208fffcc 	andi	r2,r4,16383
     eb8:	2806703a 	and	r3,r5,zero
     ebc:	100e943a 	slli	r7,r2,16
     ec0:	000d883a 	mov	r6,zero
     ec4:	e0bffb17 	ldw	r2,-20(fp)
     ec8:	100ad4ba 	srli	r5,r2,18
     ecc:	e13ffc17 	ldw	r4,-16(fp)
     ed0:	e23ffb17 	ldw	r8,-20(fp)
     ed4:	200693ba 	slli	r3,r4,14
     ed8:	1946b03a 	or	r3,r3,r5
     edc:	400493ba 	slli	r2,r8,14
     ee0:	3089883a 	add	r4,r6,r2
     ee4:	2191803a 	cmpltu	r8,r4,r6
     ee8:	38cb883a 	add	r5,r7,r3
     eec:	4145883a 	add	r2,r8,r5
     ef0:	100b883a 	mov	r5,r2
     ef4:	200d883a 	mov	r6,r4
     ef8:	280f883a 	mov	r7,r5
     efc:	e13ffd17 	ldw	r4,-12(fp)
     f00:	e17ffe17 	ldw	r5,-8(fp)
     f04:	20bfff2c 	andhi	r2,r4,65532
     f08:	2806703a 	and	r3,r5,zero
     f0c:	181093ba 	slli	r8,r3,14
     f10:	1008d4ba 	srli	r4,r2,18
     f14:	2208b03a 	or	r4,r4,r8
     f18:	180ad4ba 	srli	r5,r3,18
     f1c:	3105883a 	add	r2,r6,r4
     f20:	1191803a 	cmpltu	r8,r2,r6
     f24:	3947883a 	add	r3,r7,r5
     f28:	40c9883a 	add	r4,r8,r3
     f2c:	2007883a 	mov	r3,r4
     f30:	e0bfd315 	stw	r2,-180(fp)
     f34:	e0ffd415 	stw	r3,-176(fp)

		int n 			= *CH2_TIME;
     f38:	d0a02e17 	ldw	r2,-32584(gp)
     f3c:	10800017 	ldw	r2,0(r2)
     f40:	e0bfd215 	stw	r2,-184(fp)

		CH2_nOut = qInterp(1000000, n-2, Yn1NUM, Yn1DEN, Yn2NUM, Yn2DEN, Yn3NUM, Yn3DEN);
     f44:	e0bfd217 	ldw	r2,-184(fp)
     f48:	117fff84 	addi	r5,r2,-2
     f4c:	e0bfdd17 	ldw	r2,-140(fp)
     f50:	d8800015 	stw	r2,0(sp)
     f54:	e0bfde17 	ldw	r2,-136(fp)
     f58:	d8800115 	stw	r2,4(sp)
     f5c:	e0bfd717 	ldw	r2,-164(fp)
     f60:	d8800215 	stw	r2,8(sp)
     f64:	e0bfd817 	ldw	r2,-160(fp)
     f68:	d8800315 	stw	r2,12(sp)
     f6c:	e0bfd917 	ldw	r2,-156(fp)
     f70:	d8800415 	stw	r2,16(sp)
     f74:	e0bfda17 	ldw	r2,-152(fp)
     f78:	d8800515 	stw	r2,20(sp)
     f7c:	e0bfd317 	ldw	r2,-180(fp)
     f80:	d8800615 	stw	r2,24(sp)
     f84:	e0bfd417 	ldw	r2,-176(fp)
     f88:	d8800715 	stw	r2,28(sp)
     f8c:	e0bfd517 	ldw	r2,-172(fp)
     f90:	d8800815 	stw	r2,32(sp)
     f94:	e0bfd617 	ldw	r2,-168(fp)
     f98:	d8800915 	stw	r2,36(sp)
     f9c:	010003f4 	movhi	r4,15
     fa0:	21109004 	addi	r4,r4,16960
     fa4:	e1bfdb17 	ldw	r6,-148(fp)
     fa8:	e1ffdc17 	ldw	r7,-144(fp)
     fac:	00016040 	call	1604 <qInterp>
     fb0:	1009883a 	mov	r4,r2
     fb4:	180b883a 	mov	r5,r3
     fb8:	d126cc15 	stw	r4,-25808(gp)
     fbc:	00800074 	movhi	r2,1
     fc0:	1087da04 	addi	r2,r2,8040
     fc4:	11400015 	stw	r5,0(r2)
     fc8:	00000406 	br	fdc <sampleChannels+0xc60>
	} else {
		CH2_nOut = 0;
     fcc:	d026cc15 	stw	zero,-25808(gp)
     fd0:	00800074 	movhi	r2,1
     fd4:	1087da04 	addi	r2,r2,8040
     fd8:	10000015 	stw	zero,0(r2)
	}

	usleep(0.001 seconds);
     fdc:	0100fa04 	movi	r4,1000
     fe0:	000b2100 	call	b210 <usleep>

	if (*CH3_peakFound) {
     fe4:	d0a03d17 	ldw	r2,-32524(gp)
     fe8:	10800017 	ldw	r2,0(r2)
     fec:	1005003a 	cmpeq	r2,r2,zero
     ff0:	1000fc1e 	bne	r2,zero,13e4 <sampleChannels+0x1068>
		*CH3_RD = 0x1;
     ff4:	d0e03e17 	ldw	r3,-32520(gp)
     ff8:	00800044 	movi	r2,1
     ffc:	18800015 	stw	r2,0(r3)
		*CH3_RD = 0x0;
    1000:	d0a03e17 	ldw	r2,-32520(gp)
    1004:	10000015 	stw	zero,0(r2)

		YnL				= *CH3_Yn1L;
    1008:	d0a04017 	ldw	r2,-32512(gp)
    100c:	10800017 	ldw	r2,0(r2)
    1010:	e0bfff15 	stw	r2,-4(fp)
		YnML 			= *CH3_Yn1ML;
    1014:	d0a04117 	ldw	r2,-32508(gp)
    1018:	10800017 	ldw	r2,0(r2)
    101c:	e0bffd15 	stw	r2,-12(fp)
    1020:	1005d7fa 	srai	r2,r2,31
    1024:	e0bffe15 	stw	r2,-8(fp)
		YnMU			= *CH3_Yn1MU;
    1028:	d0a04217 	ldw	r2,-32504(gp)
    102c:	10800017 	ldw	r2,0(r2)
    1030:	e0bffb15 	stw	r2,-20(fp)
    1034:	1005d7fa 	srai	r2,r2,31
    1038:	e0bffc15 	stw	r2,-16(fp)
		YnU 			= *CH3_Yn1U;
    103c:	d0a04317 	ldw	r2,-32500(gp)
    1040:	10800017 	ldw	r2,0(r2)
    1044:	e0bff915 	stw	r2,-28(fp)
    1048:	1005d7fa 	srai	r2,r2,31
    104c:	e0bffa15 	stw	r2,-24(fp)
		alt_u64 Yn1DEN 	= ((YnML & 0x3FFFF) << 32) + YnL;
    1050:	e1bffd17 	ldw	r6,-12(fp)
    1054:	01000134 	movhi	r4,4
    1058:	213fffc4 	addi	r4,r4,-1
    105c:	e17ffe17 	ldw	r5,-8(fp)
    1060:	3104703a 	and	r2,r6,r4
    1064:	2806703a 	and	r3,r5,zero
    1068:	100a983a 	sll	r5,r2,zero
    106c:	0009883a 	mov	r4,zero
    1070:	e1bfff17 	ldw	r6,-4(fp)
    1074:	000f883a 	mov	r7,zero
    1078:	2185883a 	add	r2,r4,r6
    107c:	1111803a 	cmpltu	r8,r2,r4
    1080:	29c7883a 	add	r3,r5,r7
    1084:	40c9883a 	add	r4,r8,r3
    1088:	2007883a 	mov	r3,r4
    108c:	e0bfd015 	stw	r2,-192(fp)
    1090:	e0ffd115 	stw	r3,-188(fp)
		alt_u64 Yn1NUM 	= ((YnU & 0x3FFF) << 48) + (YnMU << 14) + ((YnML & 0xFFFC0000) >> 18);
    1094:	e13ff917 	ldw	r4,-28(fp)
    1098:	e17ffa17 	ldw	r5,-24(fp)
    109c:	208fffcc 	andi	r2,r4,16383
    10a0:	2806703a 	and	r3,r5,zero
    10a4:	100e943a 	slli	r7,r2,16
    10a8:	000d883a 	mov	r6,zero
    10ac:	e0bffb17 	ldw	r2,-20(fp)
    10b0:	100ad4ba 	srli	r5,r2,18
    10b4:	e13ffc17 	ldw	r4,-16(fp)
    10b8:	e23ffb17 	ldw	r8,-20(fp)
    10bc:	200693ba 	slli	r3,r4,14
    10c0:	1946b03a 	or	r3,r3,r5
    10c4:	400493ba 	slli	r2,r8,14
    10c8:	3089883a 	add	r4,r6,r2
    10cc:	2191803a 	cmpltu	r8,r4,r6
    10d0:	38cb883a 	add	r5,r7,r3
    10d4:	4145883a 	add	r2,r8,r5
    10d8:	100b883a 	mov	r5,r2
    10dc:	200d883a 	mov	r6,r4
    10e0:	280f883a 	mov	r7,r5
    10e4:	e13ffd17 	ldw	r4,-12(fp)
    10e8:	e17ffe17 	ldw	r5,-8(fp)
    10ec:	20bfff2c 	andhi	r2,r4,65532
    10f0:	2806703a 	and	r3,r5,zero
    10f4:	181093ba 	slli	r8,r3,14
    10f8:	1008d4ba 	srli	r4,r2,18
    10fc:	2208b03a 	or	r4,r4,r8
    1100:	180ad4ba 	srli	r5,r3,18
    1104:	3105883a 	add	r2,r6,r4
    1108:	1191803a 	cmpltu	r8,r2,r6
    110c:	3947883a 	add	r3,r7,r5
    1110:	40c9883a 	add	r4,r8,r3
    1114:	2007883a 	mov	r3,r4
    1118:	e0bfce15 	stw	r2,-200(fp)
    111c:	e0ffcf15 	stw	r3,-196(fp)

		YnL				= *CH3_Yn2L;
    1120:	d0a04417 	ldw	r2,-32496(gp)
    1124:	10800017 	ldw	r2,0(r2)
    1128:	e0bfff15 	stw	r2,-4(fp)
		YnML 			= *CH3_Yn2ML;
    112c:	d0a04517 	ldw	r2,-32492(gp)
    1130:	10800017 	ldw	r2,0(r2)
    1134:	e0bffd15 	stw	r2,-12(fp)
    1138:	1005d7fa 	srai	r2,r2,31
    113c:	e0bffe15 	stw	r2,-8(fp)
		YnMU			= *CH3_Yn2MU;
    1140:	d0a04617 	ldw	r2,-32488(gp)
    1144:	10800017 	ldw	r2,0(r2)
    1148:	e0bffb15 	stw	r2,-20(fp)
    114c:	1005d7fa 	srai	r2,r2,31
    1150:	e0bffc15 	stw	r2,-16(fp)
		YnU 			= *CH3_Yn2U;
    1154:	d0a04717 	ldw	r2,-32484(gp)
    1158:	10800017 	ldw	r2,0(r2)
    115c:	e0bff915 	stw	r2,-28(fp)
    1160:	1005d7fa 	srai	r2,r2,31
    1164:	e0bffa15 	stw	r2,-24(fp)
		alt_u64 Yn2DEN 	= ((YnML & 0x3FFFF) << 32) + YnL;
    1168:	e1bffd17 	ldw	r6,-12(fp)
    116c:	01000134 	movhi	r4,4
    1170:	213fffc4 	addi	r4,r4,-1
    1174:	e17ffe17 	ldw	r5,-8(fp)
    1178:	3104703a 	and	r2,r6,r4
    117c:	2806703a 	and	r3,r5,zero
    1180:	100a983a 	sll	r5,r2,zero
    1184:	0009883a 	mov	r4,zero
    1188:	e1bfff17 	ldw	r6,-4(fp)
    118c:	000f883a 	mov	r7,zero
    1190:	2185883a 	add	r2,r4,r6
    1194:	1111803a 	cmpltu	r8,r2,r4
    1198:	29c7883a 	add	r3,r5,r7
    119c:	40c9883a 	add	r4,r8,r3
    11a0:	2007883a 	mov	r3,r4
    11a4:	e0bfcc15 	stw	r2,-208(fp)
    11a8:	e0ffcd15 	stw	r3,-204(fp)
		alt_u64 Yn2NUM 	= ((YnU & 0x3FFF) << 48) + (YnMU << 14) + ((YnML & 0xFFFC0000) >> 18);
    11ac:	e13ff917 	ldw	r4,-28(fp)
    11b0:	e17ffa17 	ldw	r5,-24(fp)
    11b4:	208fffcc 	andi	r2,r4,16383
    11b8:	2806703a 	and	r3,r5,zero
    11bc:	100e943a 	slli	r7,r2,16
    11c0:	000d883a 	mov	r6,zero
    11c4:	e0bffb17 	ldw	r2,-20(fp)
    11c8:	100ad4ba 	srli	r5,r2,18
    11cc:	e13ffc17 	ldw	r4,-16(fp)
    11d0:	e23ffb17 	ldw	r8,-20(fp)
    11d4:	200693ba 	slli	r3,r4,14
    11d8:	1946b03a 	or	r3,r3,r5
    11dc:	400493ba 	slli	r2,r8,14
    11e0:	3089883a 	add	r4,r6,r2
    11e4:	2191803a 	cmpltu	r8,r4,r6
    11e8:	38cb883a 	add	r5,r7,r3
    11ec:	4145883a 	add	r2,r8,r5
    11f0:	100b883a 	mov	r5,r2
    11f4:	200d883a 	mov	r6,r4
    11f8:	280f883a 	mov	r7,r5
    11fc:	e13ffd17 	ldw	r4,-12(fp)
    1200:	e17ffe17 	ldw	r5,-8(fp)
    1204:	20bfff2c 	andhi	r2,r4,65532
    1208:	2806703a 	and	r3,r5,zero
    120c:	181093ba 	slli	r8,r3,14
    1210:	1008d4ba 	srli	r4,r2,18
    1214:	2208b03a 	or	r4,r4,r8
    1218:	180ad4ba 	srli	r5,r3,18
    121c:	3105883a 	add	r2,r6,r4
    1220:	1191803a 	cmpltu	r8,r2,r6
    1224:	3947883a 	add	r3,r7,r5
    1228:	40c9883a 	add	r4,r8,r3
    122c:	2007883a 	mov	r3,r4
    1230:	e0bfca15 	stw	r2,-216(fp)
    1234:	e0ffcb15 	stw	r3,-212(fp)

		YnL				= *CH3_Yn3L;
    1238:	d0a04817 	ldw	r2,-32480(gp)
    123c:	10800017 	ldw	r2,0(r2)
    1240:	e0bfff15 	stw	r2,-4(fp)
		YnML 			= *CH3_Yn3ML;
    1244:	d0a04917 	ldw	r2,-32476(gp)
    1248:	10800017 	ldw	r2,0(r2)
    124c:	e0bffd15 	stw	r2,-12(fp)
    1250:	1005d7fa 	srai	r2,r2,31
    1254:	e0bffe15 	stw	r2,-8(fp)
		YnMU			= *CH3_Yn3MU;
    1258:	d0a04a17 	ldw	r2,-32472(gp)
    125c:	10800017 	ldw	r2,0(r2)
    1260:	e0bffb15 	stw	r2,-20(fp)
    1264:	1005d7fa 	srai	r2,r2,31
    1268:	e0bffc15 	stw	r2,-16(fp)
		YnU 			= *CH3_Yn3U;
    126c:	d0a04b17 	ldw	r2,-32468(gp)
    1270:	10800017 	ldw	r2,0(r2)
    1274:	e0bff915 	stw	r2,-28(fp)
    1278:	1005d7fa 	srai	r2,r2,31
    127c:	e0bffa15 	stw	r2,-24(fp)
		alt_u64 Yn3DEN 	= ((YnML & 0x3FFFF) << 32) + YnL;
    1280:	e1bffd17 	ldw	r6,-12(fp)
    1284:	01000134 	movhi	r4,4
    1288:	213fffc4 	addi	r4,r4,-1
    128c:	e17ffe17 	ldw	r5,-8(fp)
    1290:	3104703a 	and	r2,r6,r4
    1294:	2806703a 	and	r3,r5,zero
    1298:	100a983a 	sll	r5,r2,zero
    129c:	0009883a 	mov	r4,zero
    12a0:	e1bfff17 	ldw	r6,-4(fp)
    12a4:	000f883a 	mov	r7,zero
    12a8:	2185883a 	add	r2,r4,r6
    12ac:	1111803a 	cmpltu	r8,r2,r4
    12b0:	29c7883a 	add	r3,r5,r7
    12b4:	40c9883a 	add	r4,r8,r3
    12b8:	2007883a 	mov	r3,r4
    12bc:	e0bfc815 	stw	r2,-224(fp)
    12c0:	e0ffc915 	stw	r3,-220(fp)
		alt_u64 Yn3NUM 	= ((YnU & 0x3FFF) << 48) + (YnMU << 14) + ((YnML & 0xFFFC0000) >> 18);
    12c4:	e13ff917 	ldw	r4,-28(fp)
    12c8:	e17ffa17 	ldw	r5,-24(fp)
    12cc:	208fffcc 	andi	r2,r4,16383
    12d0:	2806703a 	and	r3,r5,zero
    12d4:	100e943a 	slli	r7,r2,16
    12d8:	000d883a 	mov	r6,zero
    12dc:	e0bffb17 	ldw	r2,-20(fp)
    12e0:	100ad4ba 	srli	r5,r2,18
    12e4:	e13ffc17 	ldw	r4,-16(fp)
    12e8:	e23ffb17 	ldw	r8,-20(fp)
    12ec:	200693ba 	slli	r3,r4,14
    12f0:	1946b03a 	or	r3,r3,r5
    12f4:	400493ba 	slli	r2,r8,14
    12f8:	3089883a 	add	r4,r6,r2
    12fc:	2191803a 	cmpltu	r8,r4,r6
    1300:	38cb883a 	add	r5,r7,r3
    1304:	4145883a 	add	r2,r8,r5
    1308:	100b883a 	mov	r5,r2
    130c:	200d883a 	mov	r6,r4
    1310:	280f883a 	mov	r7,r5
    1314:	e13ffd17 	ldw	r4,-12(fp)
    1318:	e17ffe17 	ldw	r5,-8(fp)
    131c:	20bfff2c 	andhi	r2,r4,65532
    1320:	2806703a 	and	r3,r5,zero
    1324:	181093ba 	slli	r8,r3,14
    1328:	1008d4ba 	srli	r4,r2,18
    132c:	2208b03a 	or	r4,r4,r8
    1330:	180ad4ba 	srli	r5,r3,18
    1334:	3105883a 	add	r2,r6,r4
    1338:	1191803a 	cmpltu	r8,r2,r6
    133c:	3947883a 	add	r3,r7,r5
    1340:	40c9883a 	add	r4,r8,r3
    1344:	2007883a 	mov	r3,r4
    1348:	e0bfc615 	stw	r2,-232(fp)
    134c:	e0ffc715 	stw	r3,-228(fp)

		int n 			= *CH3_TIME;
    1350:	d0a03f17 	ldw	r2,-32516(gp)
    1354:	10800017 	ldw	r2,0(r2)
    1358:	e0bfc515 	stw	r2,-236(fp)

		CH3_nOut = qInterp(1000000, n-2, Yn1NUM, Yn1DEN, Yn2NUM, Yn2DEN, Yn3NUM, Yn3DEN);
    135c:	e0bfc517 	ldw	r2,-236(fp)
    1360:	117fff84 	addi	r5,r2,-2
    1364:	e0bfd017 	ldw	r2,-192(fp)
    1368:	d8800015 	stw	r2,0(sp)
    136c:	e0bfd117 	ldw	r2,-188(fp)
    1370:	d8800115 	stw	r2,4(sp)
    1374:	e0bfca17 	ldw	r2,-216(fp)
    1378:	d8800215 	stw	r2,8(sp)
    137c:	e0bfcb17 	ldw	r2,-212(fp)
    1380:	d8800315 	stw	r2,12(sp)
    1384:	e0bfcc17 	ldw	r2,-208(fp)
    1388:	d8800415 	stw	r2,16(sp)
    138c:	e0bfcd17 	ldw	r2,-204(fp)
    1390:	d8800515 	stw	r2,20(sp)
    1394:	e0bfc617 	ldw	r2,-232(fp)
    1398:	d8800615 	stw	r2,24(sp)
    139c:	e0bfc717 	ldw	r2,-228(fp)
    13a0:	d8800715 	stw	r2,28(sp)
    13a4:	e0bfc817 	ldw	r2,-224(fp)
    13a8:	d8800815 	stw	r2,32(sp)
    13ac:	e0bfc917 	ldw	r2,-220(fp)
    13b0:	d8800915 	stw	r2,36(sp)
    13b4:	010003f4 	movhi	r4,15
    13b8:	21109004 	addi	r4,r4,16960
    13bc:	e1bfce17 	ldw	r6,-200(fp)
    13c0:	e1ffcf17 	ldw	r7,-196(fp)
    13c4:	00016040 	call	1604 <qInterp>
    13c8:	1009883a 	mov	r4,r2
    13cc:	180b883a 	mov	r5,r3
    13d0:	d126c115 	stw	r4,-25852(gp)
    13d4:	00800074 	movhi	r2,1
    13d8:	1087cf04 	addi	r2,r2,7996
    13dc:	11400015 	stw	r5,0(r2)
    13e0:	00000406 	br	13f4 <sampleChannels+0x1078>
	} else {
		CH3_nOut = 0;
    13e4:	d026c115 	stw	zero,-25852(gp)
    13e8:	00800074 	movhi	r2,1
    13ec:	1087cf04 	addi	r2,r2,7996
    13f0:	10000015 	stw	zero,0(r2)
	}

	counter[0] = CH0_nOut / 1000000;
    13f4:	d0a6c917 	ldw	r2,-25820(gp)
    13f8:	01000074 	movhi	r4,1
    13fc:	2107d704 	addi	r4,r4,8028
    1400:	20c00017 	ldw	r3,0(r4)
    1404:	1009883a 	mov	r4,r2
    1408:	180b883a 	mov	r5,r3
    140c:	018003f4 	movhi	r6,15
    1410:	31909004 	addi	r6,r6,16960
    1414:	000f883a 	mov	r7,zero
    1418:	00085480 	call	8548 <__udivdi3>
    141c:	1009883a 	mov	r4,r2
    1420:	180b883a 	mov	r5,r3
    1424:	2005883a 	mov	r2,r4
    1428:	2807883a 	mov	r3,r5
    142c:	1009883a 	mov	r4,r2
    1430:	180b883a 	mov	r5,r3
    1434:	0007cf00 	call	7cf0 <__floatundisf>
    1438:	1007883a 	mov	r3,r2
    143c:	00800074 	movhi	r2,1
    1440:	1087ec04 	addi	r2,r2,8112
    1444:	10c00015 	stw	r3,0(r2)
	counter[1] = CH1_nOut / 1000000;
    1448:	d0a6c717 	ldw	r2,-25828(gp)
    144c:	01000074 	movhi	r4,1
    1450:	2107d504 	addi	r4,r4,8020
    1454:	20c00017 	ldw	r3,0(r4)
    1458:	1009883a 	mov	r4,r2
    145c:	180b883a 	mov	r5,r3
    1460:	018003f4 	movhi	r6,15
    1464:	31909004 	addi	r6,r6,16960
    1468:	000f883a 	mov	r7,zero
    146c:	00085480 	call	8548 <__udivdi3>
    1470:	1009883a 	mov	r4,r2
    1474:	180b883a 	mov	r5,r3
    1478:	2005883a 	mov	r2,r4
    147c:	2807883a 	mov	r3,r5
    1480:	1009883a 	mov	r4,r2
    1484:	180b883a 	mov	r5,r3
    1488:	0007cf00 	call	7cf0 <__floatundisf>
    148c:	1007883a 	mov	r3,r2
    1490:	00800074 	movhi	r2,1
    1494:	1087ec04 	addi	r2,r2,8112
    1498:	10c00115 	stw	r3,4(r2)
	counter[2] = CH2_nOut / 1000000;
    149c:	d0a6cc17 	ldw	r2,-25808(gp)
    14a0:	01000074 	movhi	r4,1
    14a4:	2107da04 	addi	r4,r4,8040
    14a8:	20c00017 	ldw	r3,0(r4)
    14ac:	1009883a 	mov	r4,r2
    14b0:	180b883a 	mov	r5,r3
    14b4:	018003f4 	movhi	r6,15
    14b8:	31909004 	addi	r6,r6,16960
    14bc:	000f883a 	mov	r7,zero
    14c0:	00085480 	call	8548 <__udivdi3>
    14c4:	1009883a 	mov	r4,r2
    14c8:	180b883a 	mov	r5,r3
    14cc:	2005883a 	mov	r2,r4
    14d0:	2807883a 	mov	r3,r5
    14d4:	1009883a 	mov	r4,r2
    14d8:	180b883a 	mov	r5,r3
    14dc:	0007cf00 	call	7cf0 <__floatundisf>
    14e0:	1007883a 	mov	r3,r2
    14e4:	00800074 	movhi	r2,1
    14e8:	1087ec04 	addi	r2,r2,8112
    14ec:	10c00215 	stw	r3,8(r2)
	counter[3] = ((CH3_nOut*4/5) + (CH1_nOut/5)) / 1000000;
    14f0:	d126c117 	ldw	r4,-25852(gp)
    14f4:	00800074 	movhi	r2,1
    14f8:	1087cf04 	addi	r2,r2,7996
    14fc:	11400017 	ldw	r5,0(r2)
    1500:	2105883a 	add	r2,r4,r4
    1504:	110d803a 	cmpltu	r6,r2,r4
    1508:	2947883a 	add	r3,r5,r5
    150c:	30c9883a 	add	r4,r6,r3
    1510:	2007883a 	mov	r3,r4
    1514:	1089883a 	add	r4,r2,r2
    1518:	208d803a 	cmpltu	r6,r4,r2
    151c:	18cb883a 	add	r5,r3,r3
    1520:	3145883a 	add	r2,r6,r5
    1524:	100b883a 	mov	r5,r2
    1528:	2005883a 	mov	r2,r4
    152c:	2807883a 	mov	r3,r5
    1530:	1009883a 	mov	r4,r2
    1534:	180b883a 	mov	r5,r3
    1538:	01800144 	movi	r6,5
    153c:	000f883a 	mov	r7,zero
    1540:	00085480 	call	8548 <__udivdi3>
    1544:	1009883a 	mov	r4,r2
    1548:	180b883a 	mov	r5,r3
    154c:	2021883a 	mov	r16,r4
    1550:	2823883a 	mov	r17,r5
    1554:	d0a6c717 	ldw	r2,-25828(gp)
    1558:	01000074 	movhi	r4,1
    155c:	2107d504 	addi	r4,r4,8020
    1560:	20c00017 	ldw	r3,0(r4)
    1564:	1009883a 	mov	r4,r2
    1568:	180b883a 	mov	r5,r3
    156c:	01800144 	movi	r6,5
    1570:	000f883a 	mov	r7,zero
    1574:	00085480 	call	8548 <__udivdi3>
    1578:	1009883a 	mov	r4,r2
    157c:	180b883a 	mov	r5,r3
    1580:	200d883a 	mov	r6,r4
    1584:	280f883a 	mov	r7,r5
    1588:	8185883a 	add	r2,r16,r6
    158c:	1409803a 	cmpltu	r4,r2,r16
    1590:	89c7883a 	add	r3,r17,r7
    1594:	20c9883a 	add	r4,r4,r3
    1598:	2007883a 	mov	r3,r4
    159c:	100b883a 	mov	r5,r2
    15a0:	180d883a 	mov	r6,r3
    15a4:	2809883a 	mov	r4,r5
    15a8:	300b883a 	mov	r5,r6
    15ac:	018003f4 	movhi	r6,15
    15b0:	31909004 	addi	r6,r6,16960
    15b4:	000f883a 	mov	r7,zero
    15b8:	00085480 	call	8548 <__udivdi3>
    15bc:	1009883a 	mov	r4,r2
    15c0:	180b883a 	mov	r5,r3
    15c4:	2005883a 	mov	r2,r4
    15c8:	2807883a 	mov	r3,r5
    15cc:	1009883a 	mov	r4,r2
    15d0:	180b883a 	mov	r5,r3
    15d4:	0007cf00 	call	7cf0 <__floatundisf>
    15d8:	1007883a 	mov	r3,r2
    15dc:	00800074 	movhi	r2,1
    15e0:	1087ec04 	addi	r2,r2,8112
    15e4:	10c00315 	stw	r3,12(r2)
	printf("%3.3f\t", counter[0]);
	printf("%3.3f\t", counter[1]);
	printf("%3.3f\t", counter[2]);
	printf("%3.3f\n", counter[3]);
#endif
}
    15e8:	e037883a 	mov	sp,fp
    15ec:	dfc00317 	ldw	ra,12(sp)
    15f0:	df000217 	ldw	fp,8(sp)
    15f4:	dc400117 	ldw	r17,4(sp)
    15f8:	dc000017 	ldw	r16,0(sp)
    15fc:	dec00404 	addi	sp,sp,16
    1600:	f800283a 	ret

00001604 <qInterp>:
 * int n_test = qInterp(1000000, 57, 4415676025201, 13660598848400, 14488231808281, 14775262118400, 6581528571601, 15485119375600);
 * printf("%d\n", n_test);
 *
 */
alt_u64 qInterp(int precision, int n1, alt_u64 Yn1num, alt_u64 Yn1den, alt_u64 Yn2num, alt_u64 Yn2den, alt_u64 Yn3num, alt_u64 Yn3den)
{
    1604:	deffec04 	addi	sp,sp,-80
    1608:	de00012e 	bgeu	sp,et,1610 <qInterp+0xc>
    160c:	003da0fa 	break	3
    1610:	dfc01315 	stw	ra,76(sp)
    1614:	df001215 	stw	fp,72(sp)
    1618:	dc001115 	stw	r16,68(sp)
    161c:	df001104 	addi	fp,sp,68
    1620:	e13ffc15 	stw	r4,-16(fp)
    1624:	e17ffd15 	stw	r5,-12(fp)
    1628:	e1bffe15 	stw	r6,-8(fp)
    162c:	e1ffff15 	stw	r7,-4(fp)
	float fYn1num = sqrt(Yn1num);
    1630:	e13ffe17 	ldw	r4,-8(fp)
    1634:	e17fff17 	ldw	r5,-4(fp)
    1638:	0007da80 	call	7da8 <__floatundidf>
    163c:	100b883a 	mov	r5,r2
    1640:	180d883a 	mov	r6,r3
    1644:	2809883a 	mov	r4,r5
    1648:	300b883a 	mov	r5,r6
    164c:	00041540 	call	4154 <sqrt>
    1650:	100b883a 	mov	r5,r2
    1654:	180d883a 	mov	r6,r3
    1658:	2809883a 	mov	r4,r5
    165c:	300b883a 	mov	r5,r6
    1660:	000a35c0 	call	a35c <__truncdfsf2>
    1664:	e0bffb15 	stw	r2,-20(fp)
	float fYn1den = sqrt(Yn1den);
    1668:	e1000317 	ldw	r4,12(fp)
    166c:	e1400417 	ldw	r5,16(fp)
    1670:	0007da80 	call	7da8 <__floatundidf>
    1674:	100b883a 	mov	r5,r2
    1678:	180d883a 	mov	r6,r3
    167c:	2809883a 	mov	r4,r5
    1680:	300b883a 	mov	r5,r6
    1684:	00041540 	call	4154 <sqrt>
    1688:	100b883a 	mov	r5,r2
    168c:	180d883a 	mov	r6,r3
    1690:	2809883a 	mov	r4,r5
    1694:	300b883a 	mov	r5,r6
    1698:	000a35c0 	call	a35c <__truncdfsf2>
    169c:	e0bffa15 	stw	r2,-24(fp)
	float Yn1 = fYn1num / fYn1den;
    16a0:	e13ffb17 	ldw	r4,-20(fp)
    16a4:	e17ffa17 	ldw	r5,-24(fp)
    16a8:	000904c0 	call	904c <__divsf3>
    16ac:	e0bff915 	stw	r2,-28(fp)

	float fYn2num = sqrt(Yn2num);
    16b0:	e1000517 	ldw	r4,20(fp)
    16b4:	e1400617 	ldw	r5,24(fp)
    16b8:	0007da80 	call	7da8 <__floatundidf>
    16bc:	100b883a 	mov	r5,r2
    16c0:	180d883a 	mov	r6,r3
    16c4:	2809883a 	mov	r4,r5
    16c8:	300b883a 	mov	r5,r6
    16cc:	00041540 	call	4154 <sqrt>
    16d0:	100b883a 	mov	r5,r2
    16d4:	180d883a 	mov	r6,r3
    16d8:	2809883a 	mov	r4,r5
    16dc:	300b883a 	mov	r5,r6
    16e0:	000a35c0 	call	a35c <__truncdfsf2>
    16e4:	e0bff815 	stw	r2,-32(fp)
	float fYn2den = sqrt(Yn2den);
    16e8:	e1000717 	ldw	r4,28(fp)
    16ec:	e1400817 	ldw	r5,32(fp)
    16f0:	0007da80 	call	7da8 <__floatundidf>
    16f4:	100b883a 	mov	r5,r2
    16f8:	180d883a 	mov	r6,r3
    16fc:	2809883a 	mov	r4,r5
    1700:	300b883a 	mov	r5,r6
    1704:	00041540 	call	4154 <sqrt>
    1708:	100b883a 	mov	r5,r2
    170c:	180d883a 	mov	r6,r3
    1710:	2809883a 	mov	r4,r5
    1714:	300b883a 	mov	r5,r6
    1718:	000a35c0 	call	a35c <__truncdfsf2>
    171c:	e0bff715 	stw	r2,-36(fp)
	float Yn2 = fYn2num / fYn2den;
    1720:	e13ff817 	ldw	r4,-32(fp)
    1724:	e17ff717 	ldw	r5,-36(fp)
    1728:	000904c0 	call	904c <__divsf3>
    172c:	e0bff615 	stw	r2,-40(fp)

	float fYn3num = sqrt(Yn3num);
    1730:	e1000917 	ldw	r4,36(fp)
    1734:	e1400a17 	ldw	r5,40(fp)
    1738:	0007da80 	call	7da8 <__floatundidf>
    173c:	100b883a 	mov	r5,r2
    1740:	180d883a 	mov	r6,r3
    1744:	2809883a 	mov	r4,r5
    1748:	300b883a 	mov	r5,r6
    174c:	00041540 	call	4154 <sqrt>
    1750:	100b883a 	mov	r5,r2
    1754:	180d883a 	mov	r6,r3
    1758:	2809883a 	mov	r4,r5
    175c:	300b883a 	mov	r5,r6
    1760:	000a35c0 	call	a35c <__truncdfsf2>
    1764:	e0bff515 	stw	r2,-44(fp)
	float fYn3den = sqrt(Yn3den);
    1768:	e1000b17 	ldw	r4,44(fp)
    176c:	e1400c17 	ldw	r5,48(fp)
    1770:	0007da80 	call	7da8 <__floatundidf>
    1774:	100b883a 	mov	r5,r2
    1778:	180d883a 	mov	r6,r3
    177c:	2809883a 	mov	r4,r5
    1780:	300b883a 	mov	r5,r6
    1784:	00041540 	call	4154 <sqrt>
    1788:	100b883a 	mov	r5,r2
    178c:	180d883a 	mov	r6,r3
    1790:	2809883a 	mov	r4,r5
    1794:	300b883a 	mov	r5,r6
    1798:	000a35c0 	call	a35c <__truncdfsf2>
    179c:	e0bff415 	stw	r2,-48(fp)
	float Yn3 = fYn3num / fYn3den;
    17a0:	e13ff517 	ldw	r4,-44(fp)
    17a4:	e17ff417 	ldw	r5,-48(fp)
    17a8:	000904c0 	call	904c <__divsf3>
    17ac:	e0bff315 	stw	r2,-52(fp)

	alt_64 fraction = ( (3*Yn1) - (4*Yn2) + Yn3 ) * precision;
    17b0:	e13ff917 	ldw	r4,-28(fp)
    17b4:	01501034 	movhi	r5,16448
    17b8:	0008e6c0 	call	8e6c <__mulsf3>
    17bc:	1021883a 	mov	r16,r2
    17c0:	e13ff617 	ldw	r4,-40(fp)
    17c4:	01702034 	movhi	r5,49280
    17c8:	0008e6c0 	call	8e6c <__mulsf3>
    17cc:	8009883a 	mov	r4,r16
    17d0:	100b883a 	mov	r5,r2
    17d4:	0008e080 	call	8e08 <__addsf3>
    17d8:	1009883a 	mov	r4,r2
    17dc:	e17ff317 	ldw	r5,-52(fp)
    17e0:	0008e080 	call	8e08 <__addsf3>
    17e4:	1021883a 	mov	r16,r2
    17e8:	e13ffc17 	ldw	r4,-16(fp)
    17ec:	00093280 	call	9328 <__floatsisf>
    17f0:	8009883a 	mov	r4,r16
    17f4:	100b883a 	mov	r5,r2
    17f8:	0008e6c0 	call	8e6c <__mulsf3>
    17fc:	1009883a 	mov	r4,r2
    1800:	0007ad80 	call	7ad8 <__fixsfdi>
    1804:	1009883a 	mov	r4,r2
    1808:	180b883a 	mov	r5,r3
    180c:	e13ff115 	stw	r4,-60(fp)
    1810:	e17ff215 	stw	r5,-56(fp)
	fraction /= ( 2*(Yn1 - (2*Yn2) + Yn3) );
    1814:	e13ff117 	ldw	r4,-60(fp)
    1818:	e17ff217 	ldw	r5,-56(fp)
    181c:	0007c100 	call	7c10 <__floatdisf>
    1820:	1021883a 	mov	r16,r2
    1824:	e13ff617 	ldw	r4,-40(fp)
    1828:	01700034 	movhi	r5,49152
    182c:	0008e6c0 	call	8e6c <__mulsf3>
    1830:	1009883a 	mov	r4,r2
    1834:	e17ff917 	ldw	r5,-28(fp)
    1838:	0008e080 	call	8e08 <__addsf3>
    183c:	1009883a 	mov	r4,r2
    1840:	e17ff317 	ldw	r5,-52(fp)
    1844:	0008e080 	call	8e08 <__addsf3>
    1848:	1009883a 	mov	r4,r2
    184c:	100b883a 	mov	r5,r2
    1850:	0008e080 	call	8e08 <__addsf3>
    1854:	8009883a 	mov	r4,r16
    1858:	100b883a 	mov	r5,r2
    185c:	000904c0 	call	904c <__divsf3>
    1860:	1009883a 	mov	r4,r2
    1864:	0007ad80 	call	7ad8 <__fixsfdi>
    1868:	1009883a 	mov	r4,r2
    186c:	180b883a 	mov	r5,r3
    1870:	e13ff115 	stw	r4,-60(fp)
    1874:	e17ff215 	stw	r5,-56(fp)

	alt_u64 nTPT = (n1* precision) + fraction;
    1878:	e13ffd17 	ldw	r4,-12(fp)
    187c:	e17ffc17 	ldw	r5,-16(fp)
    1880:	000a6b00 	call	a6b0 <__mulsi3>
    1884:	1007d7fa 	srai	r3,r2,31
    1888:	1009883a 	mov	r4,r2
    188c:	180b883a 	mov	r5,r3
    1890:	e1bff117 	ldw	r6,-60(fp)
    1894:	e1fff217 	ldw	r7,-56(fp)
    1898:	2185883a 	add	r2,r4,r6
    189c:	1111803a 	cmpltu	r8,r2,r4
    18a0:	29c7883a 	add	r3,r5,r7
    18a4:	40c9883a 	add	r4,r8,r3
    18a8:	2007883a 	mov	r3,r4
    18ac:	1009883a 	mov	r4,r2
    18b0:	180b883a 	mov	r5,r3
    18b4:	e13fef15 	stw	r4,-68(fp)
    18b8:	e17ff015 	stw	r5,-64(fp)
	return nTPT;
    18bc:	e17fef17 	ldw	r5,-68(fp)
    18c0:	e1bff017 	ldw	r6,-64(fp)
    18c4:	2807883a 	mov	r3,r5
    18c8:	3009883a 	mov	r4,r6
}
    18cc:	1805883a 	mov	r2,r3
    18d0:	2007883a 	mov	r3,r4
    18d4:	e037883a 	mov	sp,fp
    18d8:	dfc00217 	ldw	ra,8(sp)
    18dc:	df000117 	ldw	fp,4(sp)
    18e0:	dc000017 	ldw	r16,0(sp)
    18e4:	dec00304 	addi	sp,sp,12
    18e8:	f800283a 	ret

000018ec <Display_Results>:

//===============================
// Output Results to LCD/PC
//===============================
void Display_Results(int mode, float Rfloat, float phifloat, float thetafloat)
{
    18ec:	defff704 	addi	sp,sp,-36
    18f0:	de00012e 	bgeu	sp,et,18f8 <Display_Results+0xc>
    18f4:	003da0fa 	break	3
    18f8:	dfc00815 	stw	ra,32(sp)
    18fc:	df000715 	stw	fp,28(sp)
    1900:	df000704 	addi	fp,sp,28
    1904:	e13ffc15 	stw	r4,-16(fp)
    1908:	e17ffd15 	stw	r5,-12(fp)
    190c:	e1bffe15 	stw	r6,-8(fp)
    1910:	e1ffff15 	stw	r7,-4(fp)
	int R 		= float2int(Rfloat);
    1914:	e13ffd17 	ldw	r4,-12(fp)
    1918:	0002e540 	call	2e54 <float2int>
    191c:	e0bffb15 	stw	r2,-20(fp)
	int phi 	= float2int(phifloat);
    1920:	e13ffe17 	ldw	r4,-8(fp)
    1924:	0002e540 	call	2e54 <float2int>
    1928:	e0bffa15 	stw	r2,-24(fp)
	int theta	= float2int(thetafloat);
    192c:	e13fff17 	ldw	r4,-4(fp)
    1930:	0002e540 	call	2e54 <float2int>
    1934:	e0bff915 	stw	r2,-28(fp)

	if(R<0)	{	}
    1938:	e0bffb17 	ldw	r2,-20(fp)
    193c:	1004803a 	cmplt	r2,r2,zero
    1940:	10007f1e 	bne	r2,zero,1b40 <Display_Results+0x254>
	else {
#ifdef EVALUATE_3D
       printf("%d\t%d\t%d\n", R, phi, theta);
#endif
		/* Print results */
		line1[7]=(R/100)%10+0x30;
    1944:	e13ffb17 	ldw	r4,-20(fp)
    1948:	01401904 	movi	r5,100
    194c:	000a5e00 	call	a5e0 <__divsi3>
    1950:	1009883a 	mov	r4,r2
    1954:	01400284 	movi	r5,10
    1958:	000a6400 	call	a640 <__modsi3>
    195c:	10800c04 	addi	r2,r2,48
    1960:	1007883a 	mov	r3,r2
    1964:	00800074 	movhi	r2,1
    1968:	10bb3b04 	addi	r2,r2,-4884
    196c:	10c001c5 	stb	r3,7(r2)
		line1[8]=(R/10)%10+0x30;
    1970:	e13ffb17 	ldw	r4,-20(fp)
    1974:	01400284 	movi	r5,10
    1978:	000a5e00 	call	a5e0 <__divsi3>
    197c:	1009883a 	mov	r4,r2
    1980:	01400284 	movi	r5,10
    1984:	000a6400 	call	a640 <__modsi3>
    1988:	10800c04 	addi	r2,r2,48
    198c:	1007883a 	mov	r3,r2
    1990:	00800074 	movhi	r2,1
    1994:	10bb3b04 	addi	r2,r2,-4884
    1998:	10c00205 	stb	r3,8(r2)
		line1[9]=R%10+0x30;
    199c:	e13ffb17 	ldw	r4,-20(fp)
    19a0:	01400284 	movi	r5,10
    19a4:	000a6400 	call	a640 <__modsi3>
    19a8:	10800c04 	addi	r2,r2,48
    19ac:	1007883a 	mov	r3,r2
    19b0:	00800074 	movhi	r2,1
    19b4:	10bb3b04 	addi	r2,r2,-4884
    19b8:	10c00245 	stb	r3,9(r2)

		LCD_Display(line1, 1);
    19bc:	01000074 	movhi	r4,1
    19c0:	213b3b04 	addi	r4,r4,-4884
    19c4:	01400044 	movi	r5,1
    19c8:	00002e00 	call	2e0 <LCD_Display>

		if(mode==3) {
    19cc:	e0bffc17 	ldw	r2,-16(fp)
    19d0:	108000d8 	cmpnei	r2,r2,3
    19d4:	10005a1e 	bne	r2,zero,1b40 <Display_Results+0x254>
			if (phi < 0) {
    19d8:	e0bffa17 	ldw	r2,-24(fp)
    19dc:	1004403a 	cmpge	r2,r2,zero
    19e0:	1000081e 	bne	r2,zero,1a04 <Display_Results+0x118>
				line2[7]=0x2D; /*-*/
    19e4:	00c00074 	movhi	r3,1
    19e8:	18fb3f04 	addi	r3,r3,-4868
    19ec:	00800b44 	movi	r2,45
    19f0:	188001c5 	stb	r2,7(r3)
				phi=-phi;
    19f4:	e0bffa17 	ldw	r2,-24(fp)
    19f8:	0085c83a 	sub	r2,zero,r2
    19fc:	e0bffa15 	stw	r2,-24(fp)
    1a00:	00000406 	br	1a14 <Display_Results+0x128>
			} else {
				line2[7]=0x20;
    1a04:	00c00074 	movhi	r3,1
    1a08:	18fb3f04 	addi	r3,r3,-4868
    1a0c:	00800804 	movi	r2,32
    1a10:	188001c5 	stb	r2,7(r3)
			}

			line2[8]=(phi/100)%10+0x30;
    1a14:	e13ffa17 	ldw	r4,-24(fp)
    1a18:	01401904 	movi	r5,100
    1a1c:	000a5e00 	call	a5e0 <__divsi3>
    1a20:	1009883a 	mov	r4,r2
    1a24:	01400284 	movi	r5,10
    1a28:	000a6400 	call	a640 <__modsi3>
    1a2c:	10800c04 	addi	r2,r2,48
    1a30:	1007883a 	mov	r3,r2
    1a34:	00800074 	movhi	r2,1
    1a38:	10bb3f04 	addi	r2,r2,-4868
    1a3c:	10c00205 	stb	r3,8(r2)
			line2[9]=(phi/10)%10+0x30;
    1a40:	e13ffa17 	ldw	r4,-24(fp)
    1a44:	01400284 	movi	r5,10
    1a48:	000a5e00 	call	a5e0 <__divsi3>
    1a4c:	1009883a 	mov	r4,r2
    1a50:	01400284 	movi	r5,10
    1a54:	000a6400 	call	a640 <__modsi3>
    1a58:	10800c04 	addi	r2,r2,48
    1a5c:	1007883a 	mov	r3,r2
    1a60:	00800074 	movhi	r2,1
    1a64:	10bb3f04 	addi	r2,r2,-4868
    1a68:	10c00245 	stb	r3,9(r2)
			line2[10]=phi%10+0x30;
    1a6c:	e13ffa17 	ldw	r4,-24(fp)
    1a70:	01400284 	movi	r5,10
    1a74:	000a6400 	call	a640 <__modsi3>
    1a78:	10800c04 	addi	r2,r2,48
    1a7c:	1007883a 	mov	r3,r2
    1a80:	00800074 	movhi	r2,1
    1a84:	10bb3f04 	addi	r2,r2,-4868
    1a88:	10c00285 	stb	r3,10(r2)


			if(theta<0) {
    1a8c:	e0bff917 	ldw	r2,-28(fp)
    1a90:	1004403a 	cmpge	r2,r2,zero
    1a94:	1000081e 	bne	r2,zero,1ab8 <Display_Results+0x1cc>
				line2[13]=0x2D; /*-*/
    1a98:	00c00074 	movhi	r3,1
    1a9c:	18fb3f04 	addi	r3,r3,-4868
    1aa0:	00800b44 	movi	r2,45
    1aa4:	18800345 	stb	r2,13(r3)
				theta=-theta;
    1aa8:	e0bff917 	ldw	r2,-28(fp)
    1aac:	0085c83a 	sub	r2,zero,r2
    1ab0:	e0bff915 	stw	r2,-28(fp)
    1ab4:	00000b06 	br	1ae4 <Display_Results+0x1f8>
			} else {
				line2[13]=(theta/100)%10+0x30;
    1ab8:	e13ff917 	ldw	r4,-28(fp)
    1abc:	01401904 	movi	r5,100
    1ac0:	000a5e00 	call	a5e0 <__divsi3>
    1ac4:	1009883a 	mov	r4,r2
    1ac8:	01400284 	movi	r5,10
    1acc:	000a6400 	call	a640 <__modsi3>
    1ad0:	10800c04 	addi	r2,r2,48
    1ad4:	1007883a 	mov	r3,r2
    1ad8:	00800074 	movhi	r2,1
    1adc:	10bb3f04 	addi	r2,r2,-4868
    1ae0:	10c00345 	stb	r3,13(r2)
			}

			line2[14]=(theta/10)%10+0x30;
    1ae4:	e13ff917 	ldw	r4,-28(fp)
    1ae8:	01400284 	movi	r5,10
    1aec:	000a5e00 	call	a5e0 <__divsi3>
    1af0:	1009883a 	mov	r4,r2
    1af4:	01400284 	movi	r5,10
    1af8:	000a6400 	call	a640 <__modsi3>
    1afc:	10800c04 	addi	r2,r2,48
    1b00:	1007883a 	mov	r3,r2
    1b04:	00800074 	movhi	r2,1
    1b08:	10bb3f04 	addi	r2,r2,-4868
    1b0c:	10c00385 	stb	r3,14(r2)
			line2[15]=theta%10+0x30;
    1b10:	e13ff917 	ldw	r4,-28(fp)
    1b14:	01400284 	movi	r5,10
    1b18:	000a6400 	call	a640 <__modsi3>
    1b1c:	10800c04 	addi	r2,r2,48
    1b20:	1007883a 	mov	r3,r2
    1b24:	00800074 	movhi	r2,1
    1b28:	10bb3f04 	addi	r2,r2,-4868
    1b2c:	10c003c5 	stb	r3,15(r2)

			LCD_Display(line2, 2);
    1b30:	01000074 	movhi	r4,1
    1b34:	213b3f04 	addi	r4,r4,-4868
    1b38:	01400084 	movi	r5,2
    1b3c:	00002e00 	call	2e0 <LCD_Display>
		}
	}
}
    1b40:	e037883a 	mov	sp,fp
    1b44:	dfc00117 	ldw	ra,4(sp)
    1b48:	df000017 	ldw	fp,0(sp)
    1b4c:	dec00204 	addi	sp,sp,8
    1b50:	f800283a 	ret

00001b54 <find_constants>:
//===============================
// ALGORITHM TO SOLVE R, YAW, ELEVATION:
//===============================
/* Runs once on startup */
void find_constants()
{
    1b54:	defffb04 	addi	sp,sp,-20
    1b58:	de00012e 	bgeu	sp,et,1b60 <find_constants+0xc>
    1b5c:	003da0fa 	break	3
    1b60:	dfc00415 	stw	ra,16(sp)
    1b64:	df000315 	stw	fp,12(sp)
    1b68:	dc400215 	stw	r17,8(sp)
    1b6c:	dc000115 	stw	r16,4(sp)
    1b70:	df000104 	addi	fp,sp,4
	int k;

	/* Calculate pi */
	pi=(float)acos(-1.0);
    1b74:	0009883a 	mov	r4,zero
    1b78:	016ffc34 	movhi	r5,49136
    1b7c:	0003ef40 	call	3ef4 <acos>
    1b80:	100b883a 	mov	r5,r2
    1b84:	180d883a 	mov	r6,r3
    1b88:	2809883a 	mov	r4,r5
    1b8c:	300b883a 	mov	r5,r6
    1b90:	000a35c0 	call	a35c <__truncdfsf2>
    1b94:	d0a6cf15 	stw	r2,-25796(gp)

	/* Set initial mode */
	calc_mode=3;
    1b98:	008000c4 	movi	r2,3
    1b9c:	d0a6c315 	stw	r2,-25844(gp)

	/* Initialise counters */

	for(k=0;k<5;k++)
    1ba0:	e03fff15 	stw	zero,-4(fp)
    1ba4:	00000a06 	br	1bd0 <find_constants+0x7c>
	{
		counter[k]=0;
    1ba8:	e0bfff17 	ldw	r2,-4(fp)
    1bac:	00c00074 	movhi	r3,1
    1bb0:	18c7ec04 	addi	r3,r3,8112
    1bb4:	1085883a 	add	r2,r2,r2
    1bb8:	1085883a 	add	r2,r2,r2
    1bbc:	10c5883a 	add	r2,r2,r3
    1bc0:	10000015 	stw	zero,0(r2)
	/* Set initial mode */
	calc_mode=3;

	/* Initialise counters */

	for(k=0;k<5;k++)
    1bc4:	e0bfff17 	ldw	r2,-4(fp)
    1bc8:	10800044 	addi	r2,r2,1
    1bcc:	e0bfff15 	stw	r2,-4(fp)
    1bd0:	e0bfff17 	ldw	r2,-4(fp)
    1bd4:	10800150 	cmplti	r2,r2,5
    1bd8:	103ff31e 	bne	r2,zero,1ba8 <find_constants+0x54>
	{
		counter[k]=0;
	}

	/* Set receiver coordinates (mm) */
	y[0]=25+7;
    1bdc:	00c00074 	movhi	r3,1
    1be0:	18c7f604 	addi	r3,r3,8152
    1be4:	00908034 	movhi	r2,16896
    1be8:	18800015 	stw	r2,0(r3)
	y[1]=33+7;
    1bec:	00c00074 	movhi	r3,1
    1bf0:	18c7f604 	addi	r3,r3,8152
    1bf4:	00908834 	movhi	r2,16928
    1bf8:	18800115 	stw	r2,4(r3)
	y[2]=40+7;
    1bfc:	00c00074 	movhi	r3,1
    1c00:	18c7f604 	addi	r3,r3,8152
    1c04:	00908f34 	movhi	r2,16956
    1c08:	18800215 	stw	r2,8(r3)
	y[3]=25+7;
    1c0c:	00c00074 	movhi	r3,1
    1c10:	18c7f604 	addi	r3,r3,8152
    1c14:	00908034 	movhi	r2,16896
    1c18:	18800315 	stw	r2,12(r3)
	y[4]=35+7;
    1c1c:	00c00074 	movhi	r3,1
    1c20:	18c7f604 	addi	r3,r3,8152
    1c24:	00908a34 	movhi	r2,16936
    1c28:	18800415 	stw	r2,16(r3)
	z[0]=0;
    1c2c:	00800074 	movhi	r2,1
    1c30:	1087e704 	addi	r2,r2,8092
    1c34:	10000015 	stw	zero,0(r2)
	z[1]=3;
    1c38:	00c00074 	movhi	r3,1
    1c3c:	18c7e704 	addi	r3,r3,8092
    1c40:	00901034 	movhi	r2,16448
    1c44:	18800115 	stw	r2,4(r3)
	z[2]=5;
    1c48:	00c00074 	movhi	r3,1
    1c4c:	18c7e704 	addi	r3,r3,8092
    1c50:	00902834 	movhi	r2,16544
    1c54:	18800215 	stw	r2,8(r3)
	z[3]=10;
    1c58:	00c00074 	movhi	r3,1
    1c5c:	18c7e704 	addi	r3,r3,8092
    1c60:	00904834 	movhi	r2,16672
    1c64:	18800315 	stw	r2,12(r3)
	z[4]=10;
    1c68:	00c00074 	movhi	r3,1
    1c6c:	18c7e704 	addi	r3,r3,8092
    1c70:	00904834 	movhi	r2,16672
    1c74:	18800415 	stw	r2,16(r3)

	for(k=0;k<5;k++)
    1c78:	e03fff15 	stw	zero,-4(fp)
    1c7c:	00005b06 	br	1dec <find_constants+0x298>
	{
		/*y[k]=y[k]*count_rate/v/1000;
		z[k]=z[k]*count_rate/v/1000;*/
		y[k]=y[k]*625/784;
    1c80:	e43fff17 	ldw	r16,-4(fp)
    1c84:	e0bfff17 	ldw	r2,-4(fp)
    1c88:	00c00074 	movhi	r3,1
    1c8c:	18c7f604 	addi	r3,r3,8152
    1c90:	1085883a 	add	r2,r2,r2
    1c94:	1085883a 	add	r2,r2,r2
    1c98:	10c5883a 	add	r2,r2,r3
    1c9c:	10800017 	ldw	r2,0(r2)
    1ca0:	1009883a 	mov	r4,r2
    1ca4:	01510734 	movhi	r5,17436
    1ca8:	29500004 	addi	r5,r5,16384
    1cac:	0008e6c0 	call	8e6c <__mulsf3>
    1cb0:	1009883a 	mov	r4,r2
    1cb4:	01511134 	movhi	r5,17476
    1cb8:	000904c0 	call	904c <__divsf3>
    1cbc:	1009883a 	mov	r4,r2
    1cc0:	00c00074 	movhi	r3,1
    1cc4:	18c7f604 	addi	r3,r3,8152
    1cc8:	8405883a 	add	r2,r16,r16
    1ccc:	1085883a 	add	r2,r2,r2
    1cd0:	10c5883a 	add	r2,r2,r3
    1cd4:	11000015 	stw	r4,0(r2)
		z[k]=z[k]*625/784;
    1cd8:	e43fff17 	ldw	r16,-4(fp)
    1cdc:	e0bfff17 	ldw	r2,-4(fp)
    1ce0:	00c00074 	movhi	r3,1
    1ce4:	18c7e704 	addi	r3,r3,8092
    1ce8:	1085883a 	add	r2,r2,r2
    1cec:	1085883a 	add	r2,r2,r2
    1cf0:	10c5883a 	add	r2,r2,r3
    1cf4:	10800017 	ldw	r2,0(r2)
    1cf8:	1009883a 	mov	r4,r2
    1cfc:	01510734 	movhi	r5,17436
    1d00:	29500004 	addi	r5,r5,16384
    1d04:	0008e6c0 	call	8e6c <__mulsf3>
    1d08:	1009883a 	mov	r4,r2
    1d0c:	01511134 	movhi	r5,17476
    1d10:	000904c0 	call	904c <__divsf3>
    1d14:	1009883a 	mov	r4,r2
    1d18:	00c00074 	movhi	r3,1
    1d1c:	18c7e704 	addi	r3,r3,8092
    1d20:	8405883a 	add	r2,r16,r16
    1d24:	1085883a 	add	r2,r2,r2
    1d28:	10c5883a 	add	r2,r2,r3
    1d2c:	11000015 	stw	r4,0(r2)

		d_2[k]=y[k]*y[k]+z[k]*z[k]; /* Square of distance from transmitter to receiver */
    1d30:	e43fff17 	ldw	r16,-4(fp)
    1d34:	e0bfff17 	ldw	r2,-4(fp)
    1d38:	00c00074 	movhi	r3,1
    1d3c:	18c7f604 	addi	r3,r3,8152
    1d40:	1085883a 	add	r2,r2,r2
    1d44:	1085883a 	add	r2,r2,r2
    1d48:	10c5883a 	add	r2,r2,r3
    1d4c:	11000017 	ldw	r4,0(r2)
    1d50:	e0bfff17 	ldw	r2,-4(fp)
    1d54:	00c00074 	movhi	r3,1
    1d58:	18c7f604 	addi	r3,r3,8152
    1d5c:	1085883a 	add	r2,r2,r2
    1d60:	1085883a 	add	r2,r2,r2
    1d64:	10c5883a 	add	r2,r2,r3
    1d68:	10800017 	ldw	r2,0(r2)
    1d6c:	100b883a 	mov	r5,r2
    1d70:	0008e6c0 	call	8e6c <__mulsf3>
    1d74:	1023883a 	mov	r17,r2
    1d78:	e0bfff17 	ldw	r2,-4(fp)
    1d7c:	00c00074 	movhi	r3,1
    1d80:	18c7e704 	addi	r3,r3,8092
    1d84:	1085883a 	add	r2,r2,r2
    1d88:	1085883a 	add	r2,r2,r2
    1d8c:	10c5883a 	add	r2,r2,r3
    1d90:	11000017 	ldw	r4,0(r2)
    1d94:	e0bfff17 	ldw	r2,-4(fp)
    1d98:	00c00074 	movhi	r3,1
    1d9c:	18c7e704 	addi	r3,r3,8092
    1da0:	1085883a 	add	r2,r2,r2
    1da4:	1085883a 	add	r2,r2,r2
    1da8:	10c5883a 	add	r2,r2,r3
    1dac:	10800017 	ldw	r2,0(r2)
    1db0:	100b883a 	mov	r5,r2
    1db4:	0008e6c0 	call	8e6c <__mulsf3>
    1db8:	8809883a 	mov	r4,r17
    1dbc:	100b883a 	mov	r5,r2
    1dc0:	0008e080 	call	8e08 <__addsf3>
    1dc4:	1009883a 	mov	r4,r2
    1dc8:	00c00074 	movhi	r3,1
    1dcc:	18c7f104 	addi	r3,r3,8132
    1dd0:	8405883a 	add	r2,r16,r16
    1dd4:	1085883a 	add	r2,r2,r2
    1dd8:	10c5883a 	add	r2,r2,r3
    1ddc:	11000015 	stw	r4,0(r2)
	z[1]=3;
	z[2]=5;
	z[3]=10;
	z[4]=10;

	for(k=0;k<5;k++)
    1de0:	e0bfff17 	ldw	r2,-4(fp)
    1de4:	10800044 	addi	r2,r2,1
    1de8:	e0bfff15 	stw	r2,-4(fp)
    1dec:	e0bfff17 	ldw	r2,-4(fp)
    1df0:	10800150 	cmplti	r2,r2,5
    1df4:	103fa21e 	bne	r2,zero,1c80 <find_constants+0x12c>
		y[k]=y[k]*625/784;
		z[k]=z[k]*625/784;

		d_2[k]=y[k]*y[k]+z[k]*z[k]; /* Square of distance from transmitter to receiver */
	}
}
    1df8:	e037883a 	mov	sp,fp
    1dfc:	dfc00317 	ldw	ra,12(sp)
    1e00:	df000217 	ldw	fp,8(sp)
    1e04:	dc400117 	ldw	r17,4(sp)
    1e08:	dc000017 	ldw	r16,0(sp)
    1e0c:	dec00404 	addi	sp,sp,16
    1e10:	f800283a 	ret

00001e14 <find_coordinates>:

/* Runs after each detection cycle */
void find_coordinates(float L[5], int N, int mode, float *R, float *phi, float *theta)
{
    1e14:	deffab04 	addi	sp,sp,-340
    1e18:	de00012e 	bgeu	sp,et,1e20 <find_coordinates+0xc>
    1e1c:	003da0fa 	break	3
    1e20:	dfc05415 	stw	ra,336(sp)
    1e24:	df005315 	stw	fp,332(sp)
    1e28:	dcc05215 	stw	r19,328(sp)
    1e2c:	dc805115 	stw	r18,324(sp)
    1e30:	dc405015 	stw	r17,320(sp)
    1e34:	dc004f15 	stw	r16,316(sp)
    1e38:	df004f04 	addi	fp,sp,316
    1e3c:	e13ffc15 	stw	r4,-16(fp)
    1e40:	e17ffd15 	stw	r5,-12(fp)
    1e44:	e1bffe15 	stw	r6,-8(fp)
    1e48:	e1ffff15 	stw	r7,-4(fp)
	float ave_pl, max_diff, detBTB, detA1;
	int i,j,k,n;
	int k_valid[5];

	/* Maximum difference between path lengths (mm to counts)*/
	max_diff=MAX_DIFF;
    1e4c:	0090feb4 	movhi	r2,17402
    1e50:	e0bfb815 	stw	r2,-288(fp)

	ave_pl=0;
    1e54:	e03fb915 	stw	zero,-284(fp)

	for(k=0;k<N;k++)
    1e58:	e03fb415 	stw	zero,-304(fp)
    1e5c:	00000e06 	br	1e98 <find_coordinates+0x84>
	{
		ave_pl+=L[k];
    1e60:	e0bfb417 	ldw	r2,-304(fp)
    1e64:	1085883a 	add	r2,r2,r2
    1e68:	1085883a 	add	r2,r2,r2
    1e6c:	1007883a 	mov	r3,r2
    1e70:	e0bffc17 	ldw	r2,-16(fp)
    1e74:	1885883a 	add	r2,r3,r2
    1e78:	10800017 	ldw	r2,0(r2)
    1e7c:	e13fb917 	ldw	r4,-284(fp)
    1e80:	100b883a 	mov	r5,r2
    1e84:	0008e080 	call	8e08 <__addsf3>
    1e88:	e0bfb915 	stw	r2,-284(fp)
	/* Maximum difference between path lengths (mm to counts)*/
	max_diff=MAX_DIFF;

	ave_pl=0;

	for(k=0;k<N;k++)
    1e8c:	e0bfb417 	ldw	r2,-304(fp)
    1e90:	10800044 	addi	r2,r2,1
    1e94:	e0bfb415 	stw	r2,-304(fp)
    1e98:	e0ffb417 	ldw	r3,-304(fp)
    1e9c:	e0bffd17 	ldw	r2,-12(fp)
    1ea0:	18bfef16 	blt	r3,r2,1e60 <find_coordinates+0x4c>
	{
		ave_pl+=L[k];
	}

	ave_pl/=N;
    1ea4:	e13ffd17 	ldw	r4,-12(fp)
    1ea8:	00093280 	call	9328 <__floatsisf>
    1eac:	e13fb917 	ldw	r4,-284(fp)
    1eb0:	100b883a 	mov	r5,r2
    1eb4:	000904c0 	call	904c <__divsf3>
    1eb8:	e0bfb915 	stw	r2,-284(fp)

	/* Check for missed and false detections */
	n=N;
    1ebc:	e0bffd17 	ldw	r2,-12(fp)
    1ec0:	e0bfb315 	stw	r2,-308(fp)
	i=0;
    1ec4:	e03fb615 	stw	zero,-296(fp)

	for(k=0;k<N;k++)
    1ec8:	e03fb415 	stw	zero,-304(fp)
    1ecc:	00003406 	br	1fa0 <find_coordinates+0x18c>
	{
		if((L[k]-ave_pl)*(L[k]-ave_pl)>max_diff*max_diff) /* Check for false detections */
    1ed0:	e0bfb417 	ldw	r2,-304(fp)
    1ed4:	1085883a 	add	r2,r2,r2
    1ed8:	1085883a 	add	r2,r2,r2
    1edc:	1007883a 	mov	r3,r2
    1ee0:	e0bffc17 	ldw	r2,-16(fp)
    1ee4:	1885883a 	add	r2,r3,r2
    1ee8:	10800017 	ldw	r2,0(r2)
    1eec:	1009883a 	mov	r4,r2
    1ef0:	e17fb917 	ldw	r5,-284(fp)
    1ef4:	0008d980 	call	8d98 <__subsf3>
    1ef8:	1021883a 	mov	r16,r2
    1efc:	e0bfb417 	ldw	r2,-304(fp)
    1f00:	1085883a 	add	r2,r2,r2
    1f04:	1085883a 	add	r2,r2,r2
    1f08:	1007883a 	mov	r3,r2
    1f0c:	e0bffc17 	ldw	r2,-16(fp)
    1f10:	1885883a 	add	r2,r3,r2
    1f14:	10800017 	ldw	r2,0(r2)
    1f18:	1009883a 	mov	r4,r2
    1f1c:	e17fb917 	ldw	r5,-284(fp)
    1f20:	0008d980 	call	8d98 <__subsf3>
    1f24:	8009883a 	mov	r4,r16
    1f28:	100b883a 	mov	r5,r2
    1f2c:	0008e6c0 	call	8e6c <__mulsf3>
    1f30:	1021883a 	mov	r16,r2
    1f34:	e13fb817 	ldw	r4,-288(fp)
    1f38:	e17fb817 	ldw	r5,-288(fp)
    1f3c:	0008e6c0 	call	8e6c <__mulsf3>
    1f40:	8009883a 	mov	r4,r16
    1f44:	100b883a 	mov	r5,r2
    1f48:	00092380 	call	9238 <__gtsf2>
    1f4c:	10800048 	cmpgei	r2,r2,1
    1f50:	1000011e 	bne	r2,zero,1f58 <find_coordinates+0x144>
    1f54:	00000406 	br	1f68 <find_coordinates+0x154>
		{
			n-=1;
    1f58:	e0bfb317 	ldw	r2,-308(fp)
    1f5c:	10bfffc4 	addi	r2,r2,-1
    1f60:	e0bfb315 	stw	r2,-308(fp)
    1f64:	00000b06 	br	1f94 <find_coordinates+0x180>
		}
		else
		{
			k_valid[i]=k;
    1f68:	e0bfb617 	ldw	r2,-296(fp)
    1f6c:	1085883a 	add	r2,r2,r2
    1f70:	1085883a 	add	r2,r2,r2
    1f74:	e0ffb304 	addi	r3,fp,-308
    1f78:	10c5883a 	add	r2,r2,r3
    1f7c:	10c04404 	addi	r3,r2,272
    1f80:	e0bfb417 	ldw	r2,-304(fp)
    1f84:	18800015 	stw	r2,0(r3)
			i++;
    1f88:	e0bfb617 	ldw	r2,-296(fp)
    1f8c:	10800044 	addi	r2,r2,1
    1f90:	e0bfb615 	stw	r2,-296(fp)

	/* Check for missed and false detections */
	n=N;
	i=0;

	for(k=0;k<N;k++)
    1f94:	e0bfb417 	ldw	r2,-304(fp)
    1f98:	10800044 	addi	r2,r2,1
    1f9c:	e0bfb415 	stw	r2,-304(fp)
    1fa0:	e0ffb417 	ldw	r3,-304(fp)
    1fa4:	e0bffd17 	ldw	r2,-12(fp)
    1fa8:	18bfc916 	blt	r3,r2,1ed0 <find_coordinates+0xbc>
			k_valid[i]=k;
			i++;
		}
	}

	if(n<mode)
    1fac:	e0ffb317 	ldw	r3,-308(fp)
    1fb0:	e0bffe17 	ldw	r2,-8(fp)
    1fb4:	1880080e 	bge	r3,r2,1fd8 <find_coordinates+0x1c4>
	{
		/* Underdetermined system */
		*R=-1;
    1fb8:	e0ffff17 	ldw	r3,-4(fp)
    1fbc:	00afe034 	movhi	r2,49024
    1fc0:	18800015 	stw	r2,0(r3)
		*phi=0;
    1fc4:	e0800617 	ldw	r2,24(fp)
    1fc8:	10000015 	stw	zero,0(r2)
		*theta=0;
    1fcc:	e0800717 	ldw	r2,28(fp)
    1fd0:	10000015 	stw	zero,0(r2)
    1fd4:	00014806 	br	24f8 <find_coordinates+0x6e4>

	}
	else
	{

		for(k=0;k<n;k++)
    1fd8:	e03fb415 	stw	zero,-304(fp)
    1fdc:	00003806 	br	20c0 <find_coordinates+0x2ac>
		{
			b[k][0]=L[k_valid[k]]*L[k_valid[k]]-d_2[k_valid[k]];
    1fe0:	e47fb417 	ldw	r17,-304(fp)
    1fe4:	e0bfb417 	ldw	r2,-304(fp)
    1fe8:	1085883a 	add	r2,r2,r2
    1fec:	1085883a 	add	r2,r2,r2
    1ff0:	e13fb304 	addi	r4,fp,-308
    1ff4:	1105883a 	add	r2,r2,r4
    1ff8:	10804404 	addi	r2,r2,272
    1ffc:	10800017 	ldw	r2,0(r2)
    2000:	1085883a 	add	r2,r2,r2
    2004:	1085883a 	add	r2,r2,r2
    2008:	1007883a 	mov	r3,r2
    200c:	e0bffc17 	ldw	r2,-16(fp)
    2010:	1885883a 	add	r2,r3,r2
    2014:	11000017 	ldw	r4,0(r2)
    2018:	e0bfb417 	ldw	r2,-304(fp)
    201c:	1085883a 	add	r2,r2,r2
    2020:	1085883a 	add	r2,r2,r2
    2024:	e0ffb304 	addi	r3,fp,-308
    2028:	10c5883a 	add	r2,r2,r3
    202c:	10804404 	addi	r2,r2,272
    2030:	10800017 	ldw	r2,0(r2)
    2034:	1085883a 	add	r2,r2,r2
    2038:	1085883a 	add	r2,r2,r2
    203c:	1007883a 	mov	r3,r2
    2040:	e0bffc17 	ldw	r2,-16(fp)
    2044:	1885883a 	add	r2,r3,r2
    2048:	10800017 	ldw	r2,0(r2)
    204c:	100b883a 	mov	r5,r2
    2050:	0008e6c0 	call	8e6c <__mulsf3>
    2054:	1009883a 	mov	r4,r2
    2058:	e0bfb417 	ldw	r2,-304(fp)
    205c:	1085883a 	add	r2,r2,r2
    2060:	1085883a 	add	r2,r2,r2
    2064:	e0ffb304 	addi	r3,fp,-308
    2068:	10c5883a 	add	r2,r2,r3
    206c:	10804404 	addi	r2,r2,272
    2070:	10800017 	ldw	r2,0(r2)
    2074:	00c00074 	movhi	r3,1
    2078:	18c7f104 	addi	r3,r3,8132
    207c:	1085883a 	add	r2,r2,r2
    2080:	1085883a 	add	r2,r2,r2
    2084:	10c5883a 	add	r2,r2,r3
    2088:	10800017 	ldw	r2,0(r2)
    208c:	100b883a 	mov	r5,r2
    2090:	0008d980 	call	8d98 <__subsf3>
    2094:	1021883a 	mov	r16,r2
    2098:	8809883a 	mov	r4,r17
    209c:	01400304 	movi	r5,12
    20a0:	000a6b00 	call	a6b0 <__mulsi3>
    20a4:	e13fb304 	addi	r4,fp,-308
    20a8:	1105883a 	add	r2,r2,r4
    20ac:	10802804 	addi	r2,r2,160
    20b0:	14000015 	stw	r16,0(r2)

	}
	else
	{

		for(k=0;k<n;k++)
    20b4:	e0bfb417 	ldw	r2,-304(fp)
    20b8:	10800044 	addi	r2,r2,1
    20bc:	e0bfb415 	stw	r2,-304(fp)
    20c0:	e0ffb417 	ldw	r3,-304(fp)
    20c4:	e0bfb317 	ldw	r2,-308(fp)
    20c8:	18bfc516 	blt	r3,r2,1fe0 <find_coordinates+0x1cc>
		{
			b[k][0]=L[k_valid[k]]*L[k_valid[k]]-d_2[k_valid[k]];
		}


		find_denominator(k_valid,n,mode,&BT,&BTB,&detBTB);
    20cc:	e13ff704 	addi	r4,fp,-36
    20d0:	e1ffba04 	addi	r7,fp,-280
    20d4:	e0bfc904 	addi	r2,fp,-220
    20d8:	d8800015 	stw	r2,0(sp)
    20dc:	e0bff604 	addi	r2,fp,-40
    20e0:	d8800115 	stw	r2,4(sp)
    20e4:	e17fb317 	ldw	r5,-308(fp)
    20e8:	e1bffe17 	ldw	r6,-8(fp)
    20ec:	00028340 	call	2834 <find_denominator>

		if(detBTB==0)
    20f0:	e0bff617 	ldw	r2,-40(fp)
    20f4:	1009883a 	mov	r4,r2
    20f8:	000b883a 	mov	r5,zero
    20fc:	00091c00 	call	91c0 <__eqsf2>
    2100:	1005003a 	cmpeq	r2,r2,zero
    2104:	1000011e 	bne	r2,zero,210c <find_coordinates+0x2f8>
    2108:	00000806 	br	212c <find_coordinates+0x318>
		{
			*R=-1;
    210c:	e0ffff17 	ldw	r3,-4(fp)
    2110:	00afe034 	movhi	r2,49024
    2114:	18800015 	stw	r2,0(r3)
			*phi=0;
    2118:	e0800617 	ldw	r2,24(fp)
    211c:	10000015 	stw	zero,0(r2)
			*theta=0;
    2120:	e0800717 	ldw	r2,28(fp)
    2124:	10000015 	stw	zero,0(r2)
    2128:	0000f306 	br	24f8 <find_coordinates+0x6e4>
		}
		else
		{
			matrix_multiply(BT,mode,n,b,1,&BTb);
    212c:	e13fba04 	addi	r4,fp,-280
    2130:	e1ffdb04 	addi	r7,fp,-148
    2134:	00800044 	movi	r2,1
    2138:	d8800015 	stw	r2,0(sp)
    213c:	e0bfd204 	addi	r2,fp,-184
    2140:	d8800115 	stw	r2,4(sp)
    2144:	e17ffe17 	ldw	r5,-8(fp)
    2148:	e1bfb317 	ldw	r6,-308(fp)
    214c:	0002d080 	call	2d08 <matrix_multiply>

			/* Find numerators */

			for(k=0;k<mode;k++)
    2150:	e03fb415 	stw	zero,-304(fp)
    2154:	00005206 	br	22a0 <find_coordinates+0x48c>
			{
				/* Use column substitution to solve for x */
				for(i=0;i<mode;i++)
    2158:	e03fb615 	stw	zero,-296(fp)
    215c:	00003a06 	br	2248 <find_coordinates+0x434>
				{
					for(j=0;j<mode;j++)
    2160:	e03fb515 	stw	zero,-300(fp)
    2164:	00003206 	br	2230 <find_coordinates+0x41c>
					{
						if(j==k)
    2168:	e0ffb517 	ldw	r3,-300(fp)
    216c:	e0bfb417 	ldw	r2,-304(fp)
    2170:	1880141e 	bne	r3,r2,21c4 <find_coordinates+0x3b0>
						{
							A1[i][j]=BTb[i][0];
    2174:	e43fb617 	ldw	r16,-296(fp)
    2178:	e47fb517 	ldw	r17,-300(fp)
    217c:	e13fb617 	ldw	r4,-296(fp)
    2180:	01400304 	movi	r5,12
    2184:	000a6b00 	call	a6b0 <__mulsi3>
    2188:	e0ffb304 	addi	r3,fp,-308
    218c:	10c5883a 	add	r2,r2,r3
    2190:	10801f04 	addi	r2,r2,124
    2194:	10c00017 	ldw	r3,0(r2)
    2198:	8005883a 	mov	r2,r16
    219c:	1085883a 	add	r2,r2,r2
    21a0:	1405883a 	add	r2,r2,r16
    21a4:	1445883a 	add	r2,r2,r17
    21a8:	1085883a 	add	r2,r2,r2
    21ac:	1085883a 	add	r2,r2,r2
    21b0:	e13fb304 	addi	r4,fp,-308
    21b4:	1105883a 	add	r2,r2,r4
    21b8:	10803704 	addi	r2,r2,220
    21bc:	10c00015 	stw	r3,0(r2)
    21c0:	00001806 	br	2224 <find_coordinates+0x410>
						}
						else
						{
							A1[i][j]=BTB[i][j];
    21c4:	e17fb617 	ldw	r5,-296(fp)
    21c8:	e1bfb517 	ldw	r6,-300(fp)
    21cc:	e0ffb617 	ldw	r3,-296(fp)
    21d0:	e13fb517 	ldw	r4,-300(fp)
    21d4:	1805883a 	mov	r2,r3
    21d8:	1085883a 	add	r2,r2,r2
    21dc:	10c5883a 	add	r2,r2,r3
    21e0:	1105883a 	add	r2,r2,r4
    21e4:	1085883a 	add	r2,r2,r2
    21e8:	1085883a 	add	r2,r2,r2
    21ec:	e0ffb304 	addi	r3,fp,-308
    21f0:	10c5883a 	add	r2,r2,r3
    21f4:	10801604 	addi	r2,r2,88
    21f8:	10c00017 	ldw	r3,0(r2)
    21fc:	2805883a 	mov	r2,r5
    2200:	1085883a 	add	r2,r2,r2
    2204:	1145883a 	add	r2,r2,r5
    2208:	1185883a 	add	r2,r2,r6
    220c:	1085883a 	add	r2,r2,r2
    2210:	1085883a 	add	r2,r2,r2
    2214:	e13fb304 	addi	r4,fp,-308
    2218:	1105883a 	add	r2,r2,r4
    221c:	10803704 	addi	r2,r2,220
    2220:	10c00015 	stw	r3,0(r2)
			for(k=0;k<mode;k++)
			{
				/* Use column substitution to solve for x */
				for(i=0;i<mode;i++)
				{
					for(j=0;j<mode;j++)
    2224:	e0bfb517 	ldw	r2,-300(fp)
    2228:	10800044 	addi	r2,r2,1
    222c:	e0bfb515 	stw	r2,-300(fp)
    2230:	e0ffb517 	ldw	r3,-300(fp)
    2234:	e0bffe17 	ldw	r2,-8(fp)
    2238:	18bfcb16 	blt	r3,r2,2168 <find_coordinates+0x354>
			/* Find numerators */

			for(k=0;k<mode;k++)
			{
				/* Use column substitution to solve for x */
				for(i=0;i<mode;i++)
    223c:	e0bfb617 	ldw	r2,-296(fp)
    2240:	10800044 	addi	r2,r2,1
    2244:	e0bfb615 	stw	r2,-296(fp)
    2248:	e0ffb617 	ldw	r3,-296(fp)
    224c:	e0bffe17 	ldw	r2,-8(fp)
    2250:	18bfc316 	blt	r3,r2,2160 <find_coordinates+0x34c>
							A1[i][j]=BTB[i][j];
						}
					}
				}

				detA1=determinant(A1,mode);
    2254:	e13fea04 	addi	r4,fp,-88
    2258:	e17ffe17 	ldw	r5,-8(fp)
    225c:	00029c00 	call	29c0 <determinant>
    2260:	e0bfb715 	stw	r2,-292(fp)

				/* Solve linear system */
				x[k]=detA1/detBTB;
    2264:	e43fb417 	ldw	r16,-304(fp)
    2268:	e0bff617 	ldw	r2,-40(fp)
    226c:	e13fb717 	ldw	r4,-292(fp)
    2270:	100b883a 	mov	r5,r2
    2274:	000904c0 	call	904c <__divsf3>
    2278:	1007883a 	mov	r3,r2
    227c:	8405883a 	add	r2,r16,r16
    2280:	1085883a 	add	r2,r2,r2
    2284:	e13fb304 	addi	r4,fp,-308
    2288:	1105883a 	add	r2,r2,r4
    228c:	10804004 	addi	r2,r2,256
    2290:	10c00015 	stw	r3,0(r2)
		{
			matrix_multiply(BT,mode,n,b,1,&BTb);

			/* Find numerators */

			for(k=0;k<mode;k++)
    2294:	e0bfb417 	ldw	r2,-304(fp)
    2298:	10800044 	addi	r2,r2,1
    229c:	e0bfb415 	stw	r2,-304(fp)
    22a0:	e0ffb417 	ldw	r3,-304(fp)
    22a4:	e0bffe17 	ldw	r2,-8(fp)
    22a8:	18bfab16 	blt	r3,r2,2158 <find_coordinates+0x344>
				/* Solve linear system */
				x[k]=detA1/detBTB;
			}

			/* Use x to find coordinates */
			*R=sqrt(x[0])/2;
    22ac:	e0bff317 	ldw	r2,-52(fp)
    22b0:	1009883a 	mov	r4,r2
    22b4:	00093c00 	call	93c0 <__extendsfdf2>
    22b8:	100b883a 	mov	r5,r2
    22bc:	180d883a 	mov	r6,r3
    22c0:	2809883a 	mov	r4,r5
    22c4:	300b883a 	mov	r5,r6
    22c8:	00041540 	call	4154 <sqrt>
    22cc:	100b883a 	mov	r5,r2
    22d0:	180d883a 	mov	r6,r3
    22d4:	2809883a 	mov	r4,r5
    22d8:	300b883a 	mov	r5,r6
    22dc:	000d883a 	mov	r6,zero
    22e0:	01d00034 	movhi	r7,16384
    22e4:	0009cdc0 	call	9cdc <__divdf3>
    22e8:	1009883a 	mov	r4,r2
    22ec:	180b883a 	mov	r5,r3
    22f0:	2005883a 	mov	r2,r4
    22f4:	2807883a 	mov	r3,r5
    22f8:	1009883a 	mov	r4,r2
    22fc:	180b883a 	mov	r5,r3
    2300:	000a35c0 	call	a35c <__truncdfsf2>
    2304:	1007883a 	mov	r3,r2
    2308:	e0bfff17 	ldw	r2,-4(fp)
    230c:	10c00015 	stw	r3,0(r2)
			*phi=0;
    2310:	e0800617 	ldw	r2,24(fp)
    2314:	10000015 	stw	zero,0(r2)
			*theta=pi/2;
    2318:	d0a6cf17 	ldw	r2,-25796(gp)
    231c:	1009883a 	mov	r4,r2
    2320:	01500034 	movhi	r5,16384
    2324:	000904c0 	call	904c <__divsf3>
    2328:	1007883a 	mov	r3,r2
    232c:	e0800717 	ldw	r2,28(fp)
    2330:	10c00015 	stw	r3,0(r2)

			if(mode==2)
    2334:	e0bffe17 	ldw	r2,-8(fp)
    2338:	10800098 	cmpnei	r2,r2,2
    233c:	1000181e 	bne	r2,zero,23a0 <find_coordinates+0x58c>
			{
				*phi=(float)asin(-x[1]/(*R*4));
    2340:	e43ff417 	ldw	r16,-48(fp)
    2344:	e0bfff17 	ldw	r2,-4(fp)
    2348:	10800017 	ldw	r2,0(r2)
    234c:	1009883a 	mov	r4,r2
    2350:	01702034 	movhi	r5,49280
    2354:	0008e6c0 	call	8e6c <__mulsf3>
    2358:	8009883a 	mov	r4,r16
    235c:	100b883a 	mov	r5,r2
    2360:	000904c0 	call	904c <__divsf3>
    2364:	1009883a 	mov	r4,r2
    2368:	00093c00 	call	93c0 <__extendsfdf2>
    236c:	100b883a 	mov	r5,r2
    2370:	180d883a 	mov	r6,r3
    2374:	2809883a 	mov	r4,r5
    2378:	300b883a 	mov	r5,r6
    237c:	00040240 	call	4024 <asin>
    2380:	100b883a 	mov	r5,r2
    2384:	180d883a 	mov	r6,r3
    2388:	2809883a 	mov	r4,r5
    238c:	300b883a 	mov	r5,r6
    2390:	000a35c0 	call	a35c <__truncdfsf2>
    2394:	1007883a 	mov	r3,r2
    2398:	e0800617 	ldw	r2,24(fp)
    239c:	10c00015 	stw	r3,0(r2)
			}

			if(mode==3)
    23a0:	e0bffe17 	ldw	r2,-8(fp)
    23a4:	108000d8 	cmpnei	r2,r2,3
    23a8:	10004f1e 	bne	r2,zero,24e8 <find_coordinates+0x6d4>
			{
				*theta=(float)acos(-x[2]/(*R*4));
    23ac:	e43ff517 	ldw	r16,-44(fp)
    23b0:	e0bfff17 	ldw	r2,-4(fp)
    23b4:	10800017 	ldw	r2,0(r2)
    23b8:	1009883a 	mov	r4,r2
    23bc:	01702034 	movhi	r5,49280
    23c0:	0008e6c0 	call	8e6c <__mulsf3>
    23c4:	8009883a 	mov	r4,r16
    23c8:	100b883a 	mov	r5,r2
    23cc:	000904c0 	call	904c <__divsf3>
    23d0:	1009883a 	mov	r4,r2
    23d4:	00093c00 	call	93c0 <__extendsfdf2>
    23d8:	100b883a 	mov	r5,r2
    23dc:	180d883a 	mov	r6,r3
    23e0:	2809883a 	mov	r4,r5
    23e4:	300b883a 	mov	r5,r6
    23e8:	0003ef40 	call	3ef4 <acos>
    23ec:	100b883a 	mov	r5,r2
    23f0:	180d883a 	mov	r6,r3
    23f4:	2809883a 	mov	r4,r5
    23f8:	300b883a 	mov	r5,r6
    23fc:	000a35c0 	call	a35c <__truncdfsf2>
    2400:	1007883a 	mov	r3,r2
    2404:	e0800717 	ldw	r2,28(fp)
    2408:	10c00015 	stw	r3,0(r2)
				*phi=(float)asin(-x[1]/(*R*4*sin(*theta)));
    240c:	e0bff417 	ldw	r2,-48(fp)
    2410:	10a0003c 	xorhi	r2,r2,32768
    2414:	1009883a 	mov	r4,r2
    2418:	00093c00 	call	93c0 <__extendsfdf2>
    241c:	1025883a 	mov	r18,r2
    2420:	1827883a 	mov	r19,r3
    2424:	e0bfff17 	ldw	r2,-4(fp)
    2428:	10800017 	ldw	r2,0(r2)
    242c:	1009883a 	mov	r4,r2
    2430:	01502034 	movhi	r5,16512
    2434:	0008e6c0 	call	8e6c <__mulsf3>
    2438:	1009883a 	mov	r4,r2
    243c:	00093c00 	call	93c0 <__extendsfdf2>
    2440:	1021883a 	mov	r16,r2
    2444:	1823883a 	mov	r17,r3
    2448:	e0800717 	ldw	r2,28(fp)
    244c:	10800017 	ldw	r2,0(r2)
    2450:	1009883a 	mov	r4,r2
    2454:	00093c00 	call	93c0 <__extendsfdf2>
    2458:	100b883a 	mov	r5,r2
    245c:	180d883a 	mov	r6,r3
    2460:	2809883a 	mov	r4,r5
    2464:	300b883a 	mov	r5,r6
    2468:	0003d880 	call	3d88 <sin>
    246c:	100f883a 	mov	r7,r2
    2470:	1811883a 	mov	r8,r3
    2474:	8009883a 	mov	r4,r16
    2478:	880b883a 	mov	r5,r17
    247c:	380d883a 	mov	r6,r7
    2480:	400f883a 	mov	r7,r8
    2484:	00099180 	call	9918 <__muldf3>
    2488:	1009883a 	mov	r4,r2
    248c:	180b883a 	mov	r5,r3
    2490:	2005883a 	mov	r2,r4
    2494:	2807883a 	mov	r3,r5
    2498:	9009883a 	mov	r4,r18
    249c:	980b883a 	mov	r5,r19
    24a0:	100d883a 	mov	r6,r2
    24a4:	180f883a 	mov	r7,r3
    24a8:	0009cdc0 	call	9cdc <__divdf3>
    24ac:	1009883a 	mov	r4,r2
    24b0:	180b883a 	mov	r5,r3
    24b4:	2005883a 	mov	r2,r4
    24b8:	2807883a 	mov	r3,r5
    24bc:	1009883a 	mov	r4,r2
    24c0:	180b883a 	mov	r5,r3
    24c4:	00040240 	call	4024 <asin>
    24c8:	100b883a 	mov	r5,r2
    24cc:	180d883a 	mov	r6,r3
    24d0:	2809883a 	mov	r4,r5
    24d4:	300b883a 	mov	r5,r6
    24d8:	000a35c0 	call	a35c <__truncdfsf2>
    24dc:	1007883a 	mov	r3,r2
    24e0:	e0800617 	ldw	r2,24(fp)
    24e4:	10c00015 	stw	r3,0(r2)
			}

			convert_results(R,phi,theta); /* Convert results to correct units */
    24e8:	e13fff17 	ldw	r4,-4(fp)
    24ec:	e1400617 	ldw	r5,24(fp)
    24f0:	e1800717 	ldw	r6,28(fp)
    24f4:	000251c0 	call	251c <convert_results>
		}


	}

}
    24f8:	e037883a 	mov	sp,fp
    24fc:	dfc00517 	ldw	ra,20(sp)
    2500:	df000417 	ldw	fp,16(sp)
    2504:	dcc00317 	ldw	r19,12(sp)
    2508:	dc800217 	ldw	r18,8(sp)
    250c:	dc400117 	ldw	r17,4(sp)
    2510:	dc000017 	ldw	r16,0(sp)
    2514:	dec00604 	addi	sp,sp,24
    2518:	f800283a 	ret

0000251c <convert_results>:


/* Converts coordinates to correct units */
void convert_results(float *Rptr, float *phiptr, float *thetaptr)
{
    251c:	defff404 	addi	sp,sp,-48
    2520:	de00012e 	bgeu	sp,et,2528 <convert_results+0xc>
    2524:	003da0fa 	break	3
    2528:	dfc00b15 	stw	ra,44(sp)
    252c:	df000a15 	stw	fp,40(sp)
    2530:	dc400915 	stw	r17,36(sp)
    2534:	dc000815 	stw	r16,32(sp)
    2538:	df000804 	addi	fp,sp,32
    253c:	e13ffd15 	stw	r4,-12(fp)
    2540:	e17ffe15 	stw	r5,-8(fp)
    2544:	e1bfff15 	stw	r6,-4(fp)
	float R, phi, theta;
	int dist_prec=1, angle_prec=5; /* Precision*/
    2548:	00800044 	movi	r2,1
    254c:	e0bff915 	stw	r2,-28(fp)
    2550:	00800144 	movi	r2,5
    2554:	e0bff815 	stw	r2,-32(fp)

	R=*Rptr;
    2558:	e0bffd17 	ldw	r2,-12(fp)
    255c:	10800017 	ldw	r2,0(r2)
    2560:	e0bffc15 	stw	r2,-16(fp)
	phi=*phiptr;
    2564:	e0bffe17 	ldw	r2,-8(fp)
    2568:	10800017 	ldw	r2,0(r2)
    256c:	e0bffb15 	stw	r2,-20(fp)
	theta=*thetaptr;
    2570:	e0bfff17 	ldw	r2,-4(fp)
    2574:	10800017 	ldw	r2,0(r2)
    2578:	e0bffa15 	stw	r2,-24(fp)

	R*=0.12544; /* Convert to cm */
    257c:	e13ffc17 	ldw	r4,-16(fp)
    2580:	00093c00 	call	93c0 <__extendsfdf2>
    2584:	100b883a 	mov	r5,r2
    2588:	180d883a 	mov	r6,r3
    258c:	2809883a 	mov	r4,r5
    2590:	300b883a 	mov	r5,r6
    2594:	01bf33b4 	movhi	r6,64718
    2598:	31871604 	addi	r6,r6,7256
    259c:	01cff034 	movhi	r7,16320
    25a0:	39c39a84 	addi	r7,r7,3690
    25a4:	00099180 	call	9918 <__muldf3>
    25a8:	1009883a 	mov	r4,r2
    25ac:	180b883a 	mov	r5,r3
    25b0:	2005883a 	mov	r2,r4
    25b4:	2807883a 	mov	r3,r5
    25b8:	1009883a 	mov	r4,r2
    25bc:	180b883a 	mov	r5,r3
    25c0:	000a35c0 	call	a35c <__truncdfsf2>
    25c4:	e0bffc15 	stw	r2,-16(fp)

	/* Convert to degrees */
	phi=phi*180/pi;
    25c8:	e13ffb17 	ldw	r4,-20(fp)
    25cc:	0150cd34 	movhi	r5,17204
    25d0:	0008e6c0 	call	8e6c <__mulsf3>
    25d4:	d0e6cf17 	ldw	r3,-25796(gp)
    25d8:	1009883a 	mov	r4,r2
    25dc:	180b883a 	mov	r5,r3
    25e0:	000904c0 	call	904c <__divsf3>
    25e4:	e0bffb15 	stw	r2,-20(fp)
	theta=theta*180/pi-90; /* Convert azimuth to elevation */
    25e8:	e13ffa17 	ldw	r4,-24(fp)
    25ec:	0150cd34 	movhi	r5,17204
    25f0:	0008e6c0 	call	8e6c <__mulsf3>
    25f4:	d0e6cf17 	ldw	r3,-25796(gp)
    25f8:	1009883a 	mov	r4,r2
    25fc:	180b883a 	mov	r5,r3
    2600:	000904c0 	call	904c <__divsf3>
    2604:	1009883a 	mov	r4,r2
    2608:	0150ad34 	movhi	r5,17076
    260c:	0008d980 	call	8d98 <__subsf3>
    2610:	e0bffa15 	stw	r2,-24(fp)

	/* Round results */
	R=dist_prec*floor(R/dist_prec+0.5);
    2614:	e13ff917 	ldw	r4,-28(fp)
    2618:	000a1540 	call	a154 <__floatsidf>
    261c:	1021883a 	mov	r16,r2
    2620:	1823883a 	mov	r17,r3
    2624:	e13ff917 	ldw	r4,-28(fp)
    2628:	00093280 	call	9328 <__floatsisf>
    262c:	e13ffc17 	ldw	r4,-16(fp)
    2630:	100b883a 	mov	r5,r2
    2634:	000904c0 	call	904c <__divsf3>
    2638:	1009883a 	mov	r4,r2
    263c:	00093c00 	call	93c0 <__extendsfdf2>
    2640:	100b883a 	mov	r5,r2
    2644:	180d883a 	mov	r6,r3
    2648:	2809883a 	mov	r4,r5
    264c:	300b883a 	mov	r5,r6
    2650:	000d883a 	mov	r6,zero
    2654:	01cff834 	movhi	r7,16352
    2658:	00098a40 	call	98a4 <__adddf3>
    265c:	1009883a 	mov	r4,r2
    2660:	180b883a 	mov	r5,r3
    2664:	2005883a 	mov	r2,r4
    2668:	2807883a 	mov	r3,r5
    266c:	1009883a 	mov	r4,r2
    2670:	180b883a 	mov	r5,r3
    2674:	0003b640 	call	3b64 <floor>
    2678:	100f883a 	mov	r7,r2
    267c:	1811883a 	mov	r8,r3
    2680:	8009883a 	mov	r4,r16
    2684:	880b883a 	mov	r5,r17
    2688:	380d883a 	mov	r6,r7
    268c:	400f883a 	mov	r7,r8
    2690:	00099180 	call	9918 <__muldf3>
    2694:	1009883a 	mov	r4,r2
    2698:	180b883a 	mov	r5,r3
    269c:	2005883a 	mov	r2,r4
    26a0:	2807883a 	mov	r3,r5
    26a4:	1009883a 	mov	r4,r2
    26a8:	180b883a 	mov	r5,r3
    26ac:	000a35c0 	call	a35c <__truncdfsf2>
    26b0:	e0bffc15 	stw	r2,-16(fp)
	phi=angle_prec*floor(phi/angle_prec+0.5);
    26b4:	e13ff817 	ldw	r4,-32(fp)
    26b8:	000a1540 	call	a154 <__floatsidf>
    26bc:	1021883a 	mov	r16,r2
    26c0:	1823883a 	mov	r17,r3
    26c4:	e13ff817 	ldw	r4,-32(fp)
    26c8:	00093280 	call	9328 <__floatsisf>
    26cc:	e13ffb17 	ldw	r4,-20(fp)
    26d0:	100b883a 	mov	r5,r2
    26d4:	000904c0 	call	904c <__divsf3>
    26d8:	1009883a 	mov	r4,r2
    26dc:	00093c00 	call	93c0 <__extendsfdf2>
    26e0:	100b883a 	mov	r5,r2
    26e4:	180d883a 	mov	r6,r3
    26e8:	2809883a 	mov	r4,r5
    26ec:	300b883a 	mov	r5,r6
    26f0:	000d883a 	mov	r6,zero
    26f4:	01cff834 	movhi	r7,16352
    26f8:	00098a40 	call	98a4 <__adddf3>
    26fc:	1009883a 	mov	r4,r2
    2700:	180b883a 	mov	r5,r3
    2704:	2005883a 	mov	r2,r4
    2708:	2807883a 	mov	r3,r5
    270c:	1009883a 	mov	r4,r2
    2710:	180b883a 	mov	r5,r3
    2714:	0003b640 	call	3b64 <floor>
    2718:	100f883a 	mov	r7,r2
    271c:	1811883a 	mov	r8,r3
    2720:	8009883a 	mov	r4,r16
    2724:	880b883a 	mov	r5,r17
    2728:	380d883a 	mov	r6,r7
    272c:	400f883a 	mov	r7,r8
    2730:	00099180 	call	9918 <__muldf3>
    2734:	1009883a 	mov	r4,r2
    2738:	180b883a 	mov	r5,r3
    273c:	2005883a 	mov	r2,r4
    2740:	2807883a 	mov	r3,r5
    2744:	1009883a 	mov	r4,r2
    2748:	180b883a 	mov	r5,r3
    274c:	000a35c0 	call	a35c <__truncdfsf2>
    2750:	e0bffb15 	stw	r2,-20(fp)
	theta=angle_prec*floor(theta/angle_prec+0.5);
    2754:	e13ff817 	ldw	r4,-32(fp)
    2758:	000a1540 	call	a154 <__floatsidf>
    275c:	1021883a 	mov	r16,r2
    2760:	1823883a 	mov	r17,r3
    2764:	e13ff817 	ldw	r4,-32(fp)
    2768:	00093280 	call	9328 <__floatsisf>
    276c:	e13ffa17 	ldw	r4,-24(fp)
    2770:	100b883a 	mov	r5,r2
    2774:	000904c0 	call	904c <__divsf3>
    2778:	1009883a 	mov	r4,r2
    277c:	00093c00 	call	93c0 <__extendsfdf2>
    2780:	100b883a 	mov	r5,r2
    2784:	180d883a 	mov	r6,r3
    2788:	2809883a 	mov	r4,r5
    278c:	300b883a 	mov	r5,r6
    2790:	000d883a 	mov	r6,zero
    2794:	01cff834 	movhi	r7,16352
    2798:	00098a40 	call	98a4 <__adddf3>
    279c:	1009883a 	mov	r4,r2
    27a0:	180b883a 	mov	r5,r3
    27a4:	2005883a 	mov	r2,r4
    27a8:	2807883a 	mov	r3,r5
    27ac:	1009883a 	mov	r4,r2
    27b0:	180b883a 	mov	r5,r3
    27b4:	0003b640 	call	3b64 <floor>
    27b8:	100f883a 	mov	r7,r2
    27bc:	1811883a 	mov	r8,r3
    27c0:	8009883a 	mov	r4,r16
    27c4:	880b883a 	mov	r5,r17
    27c8:	380d883a 	mov	r6,r7
    27cc:	400f883a 	mov	r7,r8
    27d0:	00099180 	call	9918 <__muldf3>
    27d4:	1009883a 	mov	r4,r2
    27d8:	180b883a 	mov	r5,r3
    27dc:	2005883a 	mov	r2,r4
    27e0:	2807883a 	mov	r3,r5
    27e4:	1009883a 	mov	r4,r2
    27e8:	180b883a 	mov	r5,r3
    27ec:	000a35c0 	call	a35c <__truncdfsf2>
    27f0:	e0bffa15 	stw	r2,-24(fp)

	*Rptr=R;
    27f4:	e0fffd17 	ldw	r3,-12(fp)
    27f8:	e0bffc17 	ldw	r2,-16(fp)
    27fc:	18800015 	stw	r2,0(r3)
	*phiptr=phi;
    2800:	e0fffe17 	ldw	r3,-8(fp)
    2804:	e0bffb17 	ldw	r2,-20(fp)
    2808:	18800015 	stw	r2,0(r3)
	*thetaptr=theta;
    280c:	e0ffff17 	ldw	r3,-4(fp)
    2810:	e0bffa17 	ldw	r2,-24(fp)
    2814:	18800015 	stw	r2,0(r3)
}
    2818:	e037883a 	mov	sp,fp
    281c:	dfc00317 	ldw	ra,12(sp)
    2820:	df000217 	ldw	fp,8(sp)
    2824:	dc400117 	ldw	r17,4(sp)
    2828:	dc000017 	ldw	r16,0(sp)
    282c:	dec00404 	addi	sp,sp,16
    2830:	f800283a 	ret

00002834 <find_denominator>:


/* Finds denominator matrix */
void find_denominator(int *k_valid, int n, int mode, float (*MTptr)[3][5], float (*MTMptr)[3][3], float *detMTMptr)
{
    2834:	deffe704 	addi	sp,sp,-100
    2838:	de00012e 	bgeu	sp,et,2840 <find_denominator+0xc>
    283c:	003da0fa 	break	3
    2840:	dfc01815 	stw	ra,96(sp)
    2844:	df001715 	stw	fp,92(sp)
    2848:	dc001615 	stw	r16,88(sp)
    284c:	df001604 	addi	fp,sp,88
    2850:	e13ffc15 	stw	r4,-16(fp)
    2854:	e17ffd15 	stw	r5,-12(fp)
    2858:	e1bffe15 	stw	r6,-8(fp)
    285c:	e1ffff15 	stw	r7,-4(fp)
	float M[5][3];
	int k;

	/* Initial matrix */

	for(k=0;k<n;k++)
    2860:	e03fec15 	stw	zero,-80(fp)
    2864:	00003906 	br	294c <find_denominator+0x118>
	{

		M[k][0]=1;
    2868:	e13fec17 	ldw	r4,-80(fp)
    286c:	01400304 	movi	r5,12
    2870:	000a6b00 	call	a6b0 <__mulsi3>
    2874:	e0ffec04 	addi	r3,fp,-80
    2878:	10c5883a 	add	r2,r2,r3
    287c:	10c00104 	addi	r3,r2,4
    2880:	008fe034 	movhi	r2,16256
    2884:	18800015 	stw	r2,0(r3)
		if(mode>1)
    2888:	e0bffe17 	ldw	r2,-8(fp)
    288c:	10800090 	cmplti	r2,r2,2
    2890:	1000141e 	bne	r2,zero,28e4 <find_denominator+0xb0>
		{
			M[k][1]=y[k_valid[k]];
    2894:	e13fec17 	ldw	r4,-80(fp)
    2898:	e0bfec17 	ldw	r2,-80(fp)
    289c:	1085883a 	add	r2,r2,r2
    28a0:	1085883a 	add	r2,r2,r2
    28a4:	1007883a 	mov	r3,r2
    28a8:	e0bffc17 	ldw	r2,-16(fp)
    28ac:	1885883a 	add	r2,r3,r2
    28b0:	10800017 	ldw	r2,0(r2)
    28b4:	00c00074 	movhi	r3,1
    28b8:	18c7f604 	addi	r3,r3,8152
    28bc:	1085883a 	add	r2,r2,r2
    28c0:	1085883a 	add	r2,r2,r2
    28c4:	10c5883a 	add	r2,r2,r3
    28c8:	14000017 	ldw	r16,0(r2)
    28cc:	01400304 	movi	r5,12
    28d0:	000a6b00 	call	a6b0 <__mulsi3>
    28d4:	e0ffec04 	addi	r3,fp,-80
    28d8:	10c5883a 	add	r2,r2,r3
    28dc:	10800204 	addi	r2,r2,8
    28e0:	14000015 	stw	r16,0(r2)
		}
		if(mode>2)
    28e4:	e0bffe17 	ldw	r2,-8(fp)
    28e8:	108000d0 	cmplti	r2,r2,3
    28ec:	1000141e 	bne	r2,zero,2940 <find_denominator+0x10c>
		{
			M[k][2]=z[k_valid[k]];
    28f0:	e13fec17 	ldw	r4,-80(fp)
    28f4:	e0bfec17 	ldw	r2,-80(fp)
    28f8:	1085883a 	add	r2,r2,r2
    28fc:	1085883a 	add	r2,r2,r2
    2900:	1007883a 	mov	r3,r2
    2904:	e0bffc17 	ldw	r2,-16(fp)
    2908:	1885883a 	add	r2,r3,r2
    290c:	10800017 	ldw	r2,0(r2)
    2910:	00c00074 	movhi	r3,1
    2914:	18c7e704 	addi	r3,r3,8092
    2918:	1085883a 	add	r2,r2,r2
    291c:	1085883a 	add	r2,r2,r2
    2920:	10c5883a 	add	r2,r2,r3
    2924:	14000017 	ldw	r16,0(r2)
    2928:	01400304 	movi	r5,12
    292c:	000a6b00 	call	a6b0 <__mulsi3>
    2930:	e0ffec04 	addi	r3,fp,-80
    2934:	10c5883a 	add	r2,r2,r3
    2938:	10800304 	addi	r2,r2,12
    293c:	14000015 	stw	r16,0(r2)
	float M[5][3];
	int k;

	/* Initial matrix */

	for(k=0;k<n;k++)
    2940:	e0bfec17 	ldw	r2,-80(fp)
    2944:	10800044 	addi	r2,r2,1
    2948:	e0bfec15 	stw	r2,-80(fp)
    294c:	e0ffec17 	ldw	r3,-80(fp)
    2950:	e0bffd17 	ldw	r2,-12(fp)
    2954:	18bfc416 	blt	r3,r2,2868 <find_denominator+0x34>
			M[k][2]=z[k_valid[k]];
		}
	}

	/* Output matrices */
	transpose(M,MTptr,n,mode);
    2958:	e13fed04 	addi	r4,fp,-76
    295c:	e17fff17 	ldw	r5,-4(fp)
    2960:	e1bffd17 	ldw	r6,-12(fp)
    2964:	e1fffe17 	ldw	r7,-8(fp)
    2968:	0002c140 	call	2c14 <transpose>
	matrix_multiply(*MTptr,mode,n,M,mode,MTMptr);
    296c:	e13fff17 	ldw	r4,-4(fp)
    2970:	e1ffed04 	addi	r7,fp,-76
    2974:	e0bffe17 	ldw	r2,-8(fp)
    2978:	d8800015 	stw	r2,0(sp)
    297c:	e0800317 	ldw	r2,12(fp)
    2980:	d8800115 	stw	r2,4(sp)
    2984:	e17ffe17 	ldw	r5,-8(fp)
    2988:	e1bffd17 	ldw	r6,-12(fp)
    298c:	0002d080 	call	2d08 <matrix_multiply>

	*detMTMptr=determinant(*MTMptr,mode);
    2990:	e1000317 	ldw	r4,12(fp)
    2994:	e17ffe17 	ldw	r5,-8(fp)
    2998:	00029c00 	call	29c0 <determinant>
    299c:	1007883a 	mov	r3,r2
    29a0:	e0800417 	ldw	r2,16(fp)
    29a4:	10c00015 	stw	r3,0(r2)
}
    29a8:	e037883a 	mov	sp,fp
    29ac:	dfc00217 	ldw	ra,8(sp)
    29b0:	df000117 	ldw	fp,4(sp)
    29b4:	dc000017 	ldw	r16,0(sp)
    29b8:	dec00304 	addi	sp,sp,12
    29bc:	f800283a 	ret

000029c0 <determinant>:


/* Finds determinant of nxn matrix M
n can be equal to 1, 2 or 3 */
float determinant(float M[3][3], int n)
{
    29c0:	defff804 	addi	sp,sp,-32
    29c4:	de00012e 	bgeu	sp,et,29cc <determinant+0xc>
    29c8:	003da0fa 	break	3
    29cc:	dfc00715 	stw	ra,28(sp)
    29d0:	df000615 	stw	fp,24(sp)
    29d4:	dc800515 	stw	r18,20(sp)
    29d8:	dc400415 	stw	r17,16(sp)
    29dc:	dc000315 	stw	r16,12(sp)
    29e0:	df000304 	addi	fp,sp,12
    29e4:	e13ffd15 	stw	r4,-12(fp)
    29e8:	e17ffe15 	stw	r5,-8(fp)
	if(n==1)
    29ec:	e0bffe17 	ldw	r2,-8(fp)
    29f0:	10800058 	cmpnei	r2,r2,1
    29f4:	1000041e 	bne	r2,zero,2a08 <determinant+0x48>
	{
		return M[0][0];
    29f8:	e0bffd17 	ldw	r2,-12(fp)
    29fc:	10800017 	ldw	r2,0(r2)
    2a00:	e0bfff15 	stw	r2,-4(fp)
    2a04:	00007906 	br	2bec <determinant+0x22c>
	}
	else if(n==2)
    2a08:	e0bffe17 	ldw	r2,-8(fp)
    2a0c:	10800098 	cmpnei	r2,r2,2
    2a10:	1000161e 	bne	r2,zero,2a6c <determinant+0xac>
	{
		return M[0][0]*M[1][1]-M[0][1]*M[1][0];
    2a14:	e0bffd17 	ldw	r2,-12(fp)
    2a18:	10c00017 	ldw	r3,0(r2)
    2a1c:	e0bffd17 	ldw	r2,-12(fp)
    2a20:	10800304 	addi	r2,r2,12
    2a24:	10800117 	ldw	r2,4(r2)
    2a28:	1809883a 	mov	r4,r3
    2a2c:	100b883a 	mov	r5,r2
    2a30:	0008e6c0 	call	8e6c <__mulsf3>
    2a34:	1021883a 	mov	r16,r2
    2a38:	e0bffd17 	ldw	r2,-12(fp)
    2a3c:	10c00117 	ldw	r3,4(r2)
    2a40:	e0bffd17 	ldw	r2,-12(fp)
    2a44:	10800304 	addi	r2,r2,12
    2a48:	10800017 	ldw	r2,0(r2)
    2a4c:	1809883a 	mov	r4,r3
    2a50:	100b883a 	mov	r5,r2
    2a54:	0008e6c0 	call	8e6c <__mulsf3>
    2a58:	8009883a 	mov	r4,r16
    2a5c:	100b883a 	mov	r5,r2
    2a60:	0008d980 	call	8d98 <__subsf3>
    2a64:	e0bfff15 	stw	r2,-4(fp)
    2a68:	00006006 	br	2bec <determinant+0x22c>
	}
	else if(n==3)
    2a6c:	e0bffe17 	ldw	r2,-8(fp)
    2a70:	108000d8 	cmpnei	r2,r2,3
    2a74:	10005b1e 	bne	r2,zero,2be4 <determinant+0x224>
	{
		return M[0][0]*(M[1][1]*M[2][2]-M[1][2]*M[2][1])-M[0][1]*(M[1][0]*M[2][2]-M[1][2]*M[2][0])+M[0][2]*(M[1][0]*M[2][1]-M[1][1]*M[2][0]);
    2a78:	e0bffd17 	ldw	r2,-12(fp)
    2a7c:	14000017 	ldw	r16,0(r2)
    2a80:	e0bffd17 	ldw	r2,-12(fp)
    2a84:	10800304 	addi	r2,r2,12
    2a88:	10c00117 	ldw	r3,4(r2)
    2a8c:	e0bffd17 	ldw	r2,-12(fp)
    2a90:	10800604 	addi	r2,r2,24
    2a94:	10800217 	ldw	r2,8(r2)
    2a98:	1809883a 	mov	r4,r3
    2a9c:	100b883a 	mov	r5,r2
    2aa0:	0008e6c0 	call	8e6c <__mulsf3>
    2aa4:	1023883a 	mov	r17,r2
    2aa8:	e0bffd17 	ldw	r2,-12(fp)
    2aac:	10800304 	addi	r2,r2,12
    2ab0:	10c00217 	ldw	r3,8(r2)
    2ab4:	e0bffd17 	ldw	r2,-12(fp)
    2ab8:	10800604 	addi	r2,r2,24
    2abc:	10800117 	ldw	r2,4(r2)
    2ac0:	1809883a 	mov	r4,r3
    2ac4:	100b883a 	mov	r5,r2
    2ac8:	0008e6c0 	call	8e6c <__mulsf3>
    2acc:	8809883a 	mov	r4,r17
    2ad0:	100b883a 	mov	r5,r2
    2ad4:	0008d980 	call	8d98 <__subsf3>
    2ad8:	8009883a 	mov	r4,r16
    2adc:	100b883a 	mov	r5,r2
    2ae0:	0008e6c0 	call	8e6c <__mulsf3>
    2ae4:	1021883a 	mov	r16,r2
    2ae8:	e0bffd17 	ldw	r2,-12(fp)
    2aec:	14400117 	ldw	r17,4(r2)
    2af0:	e0bffd17 	ldw	r2,-12(fp)
    2af4:	10800304 	addi	r2,r2,12
    2af8:	10c00017 	ldw	r3,0(r2)
    2afc:	e0bffd17 	ldw	r2,-12(fp)
    2b00:	10800604 	addi	r2,r2,24
    2b04:	10800217 	ldw	r2,8(r2)
    2b08:	1809883a 	mov	r4,r3
    2b0c:	100b883a 	mov	r5,r2
    2b10:	0008e6c0 	call	8e6c <__mulsf3>
    2b14:	1025883a 	mov	r18,r2
    2b18:	e0bffd17 	ldw	r2,-12(fp)
    2b1c:	10800304 	addi	r2,r2,12
    2b20:	10c00217 	ldw	r3,8(r2)
    2b24:	e0bffd17 	ldw	r2,-12(fp)
    2b28:	10800604 	addi	r2,r2,24
    2b2c:	10800017 	ldw	r2,0(r2)
    2b30:	1809883a 	mov	r4,r3
    2b34:	100b883a 	mov	r5,r2
    2b38:	0008e6c0 	call	8e6c <__mulsf3>
    2b3c:	9009883a 	mov	r4,r18
    2b40:	100b883a 	mov	r5,r2
    2b44:	0008d980 	call	8d98 <__subsf3>
    2b48:	8809883a 	mov	r4,r17
    2b4c:	100b883a 	mov	r5,r2
    2b50:	0008e6c0 	call	8e6c <__mulsf3>
    2b54:	8009883a 	mov	r4,r16
    2b58:	100b883a 	mov	r5,r2
    2b5c:	0008d980 	call	8d98 <__subsf3>
    2b60:	1021883a 	mov	r16,r2
    2b64:	e0bffd17 	ldw	r2,-12(fp)
    2b68:	14400217 	ldw	r17,8(r2)
    2b6c:	e0bffd17 	ldw	r2,-12(fp)
    2b70:	10800304 	addi	r2,r2,12
    2b74:	10c00017 	ldw	r3,0(r2)
    2b78:	e0bffd17 	ldw	r2,-12(fp)
    2b7c:	10800604 	addi	r2,r2,24
    2b80:	10800117 	ldw	r2,4(r2)
    2b84:	1809883a 	mov	r4,r3
    2b88:	100b883a 	mov	r5,r2
    2b8c:	0008e6c0 	call	8e6c <__mulsf3>
    2b90:	1025883a 	mov	r18,r2
    2b94:	e0bffd17 	ldw	r2,-12(fp)
    2b98:	10800304 	addi	r2,r2,12
    2b9c:	10c00117 	ldw	r3,4(r2)
    2ba0:	e0bffd17 	ldw	r2,-12(fp)
    2ba4:	10800604 	addi	r2,r2,24
    2ba8:	10800017 	ldw	r2,0(r2)
    2bac:	1809883a 	mov	r4,r3
    2bb0:	100b883a 	mov	r5,r2
    2bb4:	0008e6c0 	call	8e6c <__mulsf3>
    2bb8:	9009883a 	mov	r4,r18
    2bbc:	100b883a 	mov	r5,r2
    2bc0:	0008d980 	call	8d98 <__subsf3>
    2bc4:	8809883a 	mov	r4,r17
    2bc8:	100b883a 	mov	r5,r2
    2bcc:	0008e6c0 	call	8e6c <__mulsf3>
    2bd0:	8009883a 	mov	r4,r16
    2bd4:	100b883a 	mov	r5,r2
    2bd8:	0008e080 	call	8e08 <__addsf3>
    2bdc:	e0bfff15 	stw	r2,-4(fp)
    2be0:	00000206 	br	2bec <determinant+0x22c>
	}
	else
	{
		return 0;
    2be4:	0005883a 	mov	r2,zero
    2be8:	e0bfff15 	stw	r2,-4(fp)
    2bec:	e0ffff17 	ldw	r3,-4(fp)
    2bf0:	1805883a 	mov	r2,r3
	}
}
    2bf4:	e037883a 	mov	sp,fp
    2bf8:	dfc00417 	ldw	ra,16(sp)
    2bfc:	df000317 	ldw	fp,12(sp)
    2c00:	dc800217 	ldw	r18,8(sp)
    2c04:	dc400117 	ldw	r17,4(sp)
    2c08:	dc000017 	ldw	r16,0(sp)
    2c0c:	dec00504 	addi	sp,sp,20
    2c10:	f800283a 	ret

00002c14 <transpose>:

/* Finds transpose of mxn matrix M */
void transpose(float M[5][3], float (*MTptr)[3][5], int m, int n)
{
    2c14:	defff404 	addi	sp,sp,-48
    2c18:	de00012e 	bgeu	sp,et,2c20 <transpose+0xc>
    2c1c:	003da0fa 	break	3
    2c20:	dfc00b15 	stw	ra,44(sp)
    2c24:	df000a15 	stw	fp,40(sp)
    2c28:	dcc00915 	stw	r19,36(sp)
    2c2c:	dc800815 	stw	r18,32(sp)
    2c30:	dc400715 	stw	r17,28(sp)
    2c34:	dc000615 	stw	r16,24(sp)
    2c38:	df000604 	addi	fp,sp,24
    2c3c:	e13ffc15 	stw	r4,-16(fp)
    2c40:	e17ffd15 	stw	r5,-12(fp)
    2c44:	e1bffe15 	stw	r6,-8(fp)
    2c48:	e1ffff15 	stw	r7,-4(fp)
	int i,j;

	for(i=0;i<n;i++)
    2c4c:	e03ffb15 	stw	zero,-20(fp)
    2c50:	00002106 	br	2cd8 <transpose+0xc4>
	{
		for(j=0;j<m;j++)
    2c54:	e03ffa15 	stw	zero,-24(fp)
    2c58:	00001906 	br	2cc0 <transpose+0xac>
		{
			(*MTptr)[i][j]=M[j][i];
    2c5c:	e4bffb17 	ldw	r18,-20(fp)
    2c60:	e4fffa17 	ldw	r19,-24(fp)
    2c64:	e13ffa17 	ldw	r4,-24(fp)
    2c68:	01400304 	movi	r5,12
    2c6c:	000a6b00 	call	a6b0 <__mulsi3>
    2c70:	1007883a 	mov	r3,r2
    2c74:	e0bffc17 	ldw	r2,-16(fp)
    2c78:	1887883a 	add	r3,r3,r2
    2c7c:	e0bffb17 	ldw	r2,-20(fp)
    2c80:	1085883a 	add	r2,r2,r2
    2c84:	1085883a 	add	r2,r2,r2
    2c88:	10c5883a 	add	r2,r2,r3
    2c8c:	14000017 	ldw	r16,0(r2)
    2c90:	e47ffd17 	ldw	r17,-12(fp)
    2c94:	9009883a 	mov	r4,r18
    2c98:	01400144 	movi	r5,5
    2c9c:	000a6b00 	call	a6b0 <__mulsi3>
    2ca0:	14c5883a 	add	r2,r2,r19
    2ca4:	1085883a 	add	r2,r2,r2
    2ca8:	1085883a 	add	r2,r2,r2
    2cac:	1445883a 	add	r2,r2,r17
    2cb0:	14000015 	stw	r16,0(r2)
{
	int i,j;

	for(i=0;i<n;i++)
	{
		for(j=0;j<m;j++)
    2cb4:	e0bffa17 	ldw	r2,-24(fp)
    2cb8:	10800044 	addi	r2,r2,1
    2cbc:	e0bffa15 	stw	r2,-24(fp)
    2cc0:	e0fffa17 	ldw	r3,-24(fp)
    2cc4:	e0bffe17 	ldw	r2,-8(fp)
    2cc8:	18bfe416 	blt	r3,r2,2c5c <transpose+0x48>
/* Finds transpose of mxn matrix M */
void transpose(float M[5][3], float (*MTptr)[3][5], int m, int n)
{
	int i,j;

	for(i=0;i<n;i++)
    2ccc:	e0bffb17 	ldw	r2,-20(fp)
    2cd0:	10800044 	addi	r2,r2,1
    2cd4:	e0bffb15 	stw	r2,-20(fp)
    2cd8:	e0fffb17 	ldw	r3,-20(fp)
    2cdc:	e0bfff17 	ldw	r2,-4(fp)
    2ce0:	18bfdc16 	blt	r3,r2,2c54 <transpose+0x40>
		{
			(*MTptr)[i][j]=M[j][i];
		}
	}

}
    2ce4:	e037883a 	mov	sp,fp
    2ce8:	dfc00517 	ldw	ra,20(sp)
    2cec:	df000417 	ldw	fp,16(sp)
    2cf0:	dcc00317 	ldw	r19,12(sp)
    2cf4:	dc800217 	ldw	r18,8(sp)
    2cf8:	dc400117 	ldw	r17,4(sp)
    2cfc:	dc000017 	ldw	r16,0(sp)
    2d00:	dec00604 	addi	sp,sp,24
    2d04:	f800283a 	ret

00002d08 <matrix_multiply>:

/* Multiplies mxn matrix B with nxp matrix C */
void matrix_multiply(float B[3][5], int m, int n, float C[5][3], int p, float (*BCptr)[3][3])
{
    2d08:	defff504 	addi	sp,sp,-44
    2d0c:	de00012e 	bgeu	sp,et,2d14 <matrix_multiply+0xc>
    2d10:	003da0fa 	break	3
    2d14:	dfc00a15 	stw	ra,40(sp)
    2d18:	df000915 	stw	fp,36(sp)
    2d1c:	dc000815 	stw	r16,32(sp)
    2d20:	df000804 	addi	fp,sp,32
    2d24:	e13ffc15 	stw	r4,-16(fp)
    2d28:	e17ffd15 	stw	r5,-12(fp)
    2d2c:	e1bffe15 	stw	r6,-8(fp)
    2d30:	e1ffff15 	stw	r7,-4(fp)
	float bc;
	int i, j, k;

	for(i=0;i<m;i++)
    2d34:	e03ffa15 	stw	zero,-24(fp)
    2d38:	00003d06 	br	2e30 <matrix_multiply+0x128>
	{

		for(k=0;k<p;k++)
    2d3c:	e03ff815 	stw	zero,-32(fp)
    2d40:	00003506 	br	2e18 <matrix_multiply+0x110>
		{
			bc=0;
    2d44:	e03ffb15 	stw	zero,-20(fp)

			for(j=0;j<n;j++)
    2d48:	e03ff915 	stw	zero,-28(fp)
    2d4c:	00002006 	br	2dd0 <matrix_multiply+0xc8>
			{
				bc+=B[i][j]*C[j][k];
    2d50:	e13ffa17 	ldw	r4,-24(fp)
    2d54:	01400504 	movi	r5,20
    2d58:	000a6b00 	call	a6b0 <__mulsi3>
    2d5c:	1007883a 	mov	r3,r2
    2d60:	e0bffc17 	ldw	r2,-16(fp)
    2d64:	1887883a 	add	r3,r3,r2
    2d68:	e0bff917 	ldw	r2,-28(fp)
    2d6c:	1085883a 	add	r2,r2,r2
    2d70:	1085883a 	add	r2,r2,r2
    2d74:	10c5883a 	add	r2,r2,r3
    2d78:	14000017 	ldw	r16,0(r2)
    2d7c:	e13ff917 	ldw	r4,-28(fp)
    2d80:	01400304 	movi	r5,12
    2d84:	000a6b00 	call	a6b0 <__mulsi3>
    2d88:	1007883a 	mov	r3,r2
    2d8c:	e0bfff17 	ldw	r2,-4(fp)
    2d90:	1887883a 	add	r3,r3,r2
    2d94:	e0bff817 	ldw	r2,-32(fp)
    2d98:	1085883a 	add	r2,r2,r2
    2d9c:	1085883a 	add	r2,r2,r2
    2da0:	10c5883a 	add	r2,r2,r3
    2da4:	10800017 	ldw	r2,0(r2)
    2da8:	8009883a 	mov	r4,r16
    2dac:	100b883a 	mov	r5,r2
    2db0:	0008e6c0 	call	8e6c <__mulsf3>
    2db4:	e13ffb17 	ldw	r4,-20(fp)
    2db8:	100b883a 	mov	r5,r2
    2dbc:	0008e080 	call	8e08 <__addsf3>
    2dc0:	e0bffb15 	stw	r2,-20(fp)

		for(k=0;k<p;k++)
		{
			bc=0;

			for(j=0;j<n;j++)
    2dc4:	e0bff917 	ldw	r2,-28(fp)
    2dc8:	10800044 	addi	r2,r2,1
    2dcc:	e0bff915 	stw	r2,-28(fp)
    2dd0:	e0fff917 	ldw	r3,-28(fp)
    2dd4:	e0bffe17 	ldw	r2,-8(fp)
    2dd8:	18bfdd16 	blt	r3,r2,2d50 <matrix_multiply+0x48>
			{
				bc+=B[i][j]*C[j][k];
			}

			(*BCptr)[i][k]=bc;
    2ddc:	e0fffa17 	ldw	r3,-24(fp)
    2de0:	e13ff817 	ldw	r4,-32(fp)
    2de4:	e1400417 	ldw	r5,16(fp)
    2de8:	1805883a 	mov	r2,r3
    2dec:	1085883a 	add	r2,r2,r2
    2df0:	10c5883a 	add	r2,r2,r3
    2df4:	1105883a 	add	r2,r2,r4
    2df8:	1085883a 	add	r2,r2,r2
    2dfc:	1085883a 	add	r2,r2,r2
    2e00:	1147883a 	add	r3,r2,r5
    2e04:	e0bffb17 	ldw	r2,-20(fp)
    2e08:	18800015 	stw	r2,0(r3)
	int i, j, k;

	for(i=0;i<m;i++)
	{

		for(k=0;k<p;k++)
    2e0c:	e0bff817 	ldw	r2,-32(fp)
    2e10:	10800044 	addi	r2,r2,1
    2e14:	e0bff815 	stw	r2,-32(fp)
    2e18:	e0fff817 	ldw	r3,-32(fp)
    2e1c:	e0800317 	ldw	r2,12(fp)
    2e20:	18bfc816 	blt	r3,r2,2d44 <matrix_multiply+0x3c>
void matrix_multiply(float B[3][5], int m, int n, float C[5][3], int p, float (*BCptr)[3][3])
{
	float bc;
	int i, j, k;

	for(i=0;i<m;i++)
    2e24:	e0bffa17 	ldw	r2,-24(fp)
    2e28:	10800044 	addi	r2,r2,1
    2e2c:	e0bffa15 	stw	r2,-24(fp)
    2e30:	e0fffa17 	ldw	r3,-24(fp)
    2e34:	e0bffd17 	ldw	r2,-12(fp)
    2e38:	18bfc016 	blt	r3,r2,2d3c <matrix_multiply+0x34>

			(*BCptr)[i][k]=bc;
		}
	}

}
    2e3c:	e037883a 	mov	sp,fp
    2e40:	dfc00217 	ldw	ra,8(sp)
    2e44:	df000117 	ldw	fp,4(sp)
    2e48:	dc000017 	ldw	r16,0(sp)
    2e4c:	dec00304 	addi	sp,sp,12
    2e50:	f800283a 	ret

00002e54 <float2int>:


/* Converts 3 digit float to int */
int float2int(float r)
{
    2e54:	defffc04 	addi	sp,sp,-16
    2e58:	de00012e 	bgeu	sp,et,2e60 <float2int+0xc>
    2e5c:	003da0fa 	break	3
    2e60:	dfc00315 	stw	ra,12(sp)
    2e64:	df000215 	stw	fp,8(sp)
    2e68:	df000204 	addi	fp,sp,8
    2e6c:	e13fff15 	stw	r4,-4(fp)
	int n=0;
    2e70:	e03ffe15 	stw	zero,-8(fp)

	if(r==0)
    2e74:	e13fff17 	ldw	r4,-4(fp)
    2e78:	000b883a 	mov	r5,zero
    2e7c:	00091c00 	call	91c0 <__eqsf2>
    2e80:	1005003a 	cmpeq	r2,r2,zero
    2e84:	1000011e 	bne	r2,zero,2e8c <float2int+0x38>
    2e88:	00000206 	br	2e94 <float2int+0x40>
	{
		n=0;
    2e8c:	e03ffe15 	stw	zero,-8(fp)
    2e90:	00002f06 	br	2f50 <float2int+0xfc>
	}
	else if(r<0)
    2e94:	e13fff17 	ldw	r4,-4(fp)
    2e98:	000b883a 	mov	r5,zero
    2e9c:	00092b00 	call	92b0 <__ltsf2>
    2ea0:	1004803a 	cmplt	r2,r2,zero
    2ea4:	1000011e 	bne	r2,zero,2eac <float2int+0x58>
    2ea8:	00001206 	br	2ef4 <float2int+0xa0>
	{
		n=(int)(r-0.5);
    2eac:	e13fff17 	ldw	r4,-4(fp)
    2eb0:	00093c00 	call	93c0 <__extendsfdf2>
    2eb4:	100b883a 	mov	r5,r2
    2eb8:	180d883a 	mov	r6,r3
    2ebc:	2809883a 	mov	r4,r5
    2ec0:	300b883a 	mov	r5,r6
    2ec4:	000d883a 	mov	r6,zero
    2ec8:	01cff834 	movhi	r7,16352
    2ecc:	00098240 	call	9824 <__subdf3>
    2ed0:	1009883a 	mov	r4,r2
    2ed4:	180b883a 	mov	r5,r3
    2ed8:	2005883a 	mov	r2,r4
    2edc:	2807883a 	mov	r3,r5
    2ee0:	1009883a 	mov	r4,r2
    2ee4:	180b883a 	mov	r5,r3
    2ee8:	000a24c0 	call	a24c <__fixdfsi>
    2eec:	e0bffe15 	stw	r2,-8(fp)
    2ef0:	00001706 	br	2f50 <float2int+0xfc>
	}
	else if(r>0)
    2ef4:	e13fff17 	ldw	r4,-4(fp)
    2ef8:	000b883a 	mov	r5,zero
    2efc:	00092380 	call	9238 <__gtsf2>
    2f00:	10800048 	cmpgei	r2,r2,1
    2f04:	1000011e 	bne	r2,zero,2f0c <float2int+0xb8>
    2f08:	00001106 	br	2f50 <float2int+0xfc>
	{
		n=(int)(r+0.5);
    2f0c:	e13fff17 	ldw	r4,-4(fp)
    2f10:	00093c00 	call	93c0 <__extendsfdf2>
    2f14:	100b883a 	mov	r5,r2
    2f18:	180d883a 	mov	r6,r3
    2f1c:	2809883a 	mov	r4,r5
    2f20:	300b883a 	mov	r5,r6
    2f24:	000d883a 	mov	r6,zero
    2f28:	01cff834 	movhi	r7,16352
    2f2c:	00098a40 	call	98a4 <__adddf3>
    2f30:	1009883a 	mov	r4,r2
    2f34:	180b883a 	mov	r5,r3
    2f38:	2005883a 	mov	r2,r4
    2f3c:	2807883a 	mov	r3,r5
    2f40:	1009883a 	mov	r4,r2
    2f44:	180b883a 	mov	r5,r3
    2f48:	000a24c0 	call	a24c <__fixdfsi>
    2f4c:	e0bffe15 	stw	r2,-8(fp)

	}

	return n;
    2f50:	e0bffe17 	ldw	r2,-8(fp)
}
    2f54:	e037883a 	mov	sp,fp
    2f58:	dfc00117 	ldw	ra,4(sp)
    2f5c:	df000017 	ldw	fp,0(sp)
    2f60:	dec00204 	addi	sp,sp,8
    2f64:	f800283a 	ret

00002f68 <init_ADC>:

//===============================
// Initialise ADC:
//===============================
void init_ADC(void)
{
    2f68:	defffa04 	addi	sp,sp,-24
    2f6c:	de00012e 	bgeu	sp,et,2f74 <init_ADC+0xc>
    2f70:	003da0fa 	break	3
    2f74:	dfc00515 	stw	ra,20(sp)
    2f78:	df000415 	stw	fp,16(sp)
    2f7c:	df000404 	addi	fp,sp,16
	LCD_Display("ADC     000/100", 2);
    2f80:	01000074 	movhi	r4,1
    2f84:	2139a604 	addi	r4,r4,-6504
    2f88:	01400084 	movi	r5,2
    2f8c:	00002e00 	call	2e0 <LCD_Display>

	*fifo_rst = 0x1;
    2f90:	d0e00417 	ldw	r3,-32752(gp)
    2f94:	00800044 	movi	r2,1
    2f98:	18800015 	stw	r2,0(r3)
	*adc_on = 0x1;
    2f9c:	d0e00717 	ldw	r3,-32740(gp)
    2fa0:	00800044 	movi	r2,1
    2fa4:	18800015 	stw	r2,0(r3)

	char temp1[16] = {"ADC     000/100"};
    2fa8:	00c00074 	movhi	r3,1
    2fac:	18f9a604 	addi	r3,r3,-6504
    2fb0:	18800017 	ldw	r2,0(r3)
    2fb4:	e0bffc15 	stw	r2,-16(fp)
    2fb8:	18800117 	ldw	r2,4(r3)
    2fbc:	e0bffd15 	stw	r2,-12(fp)
    2fc0:	18800217 	ldw	r2,8(r3)
    2fc4:	e0bffe15 	stw	r2,-8(fp)
    2fc8:	18800317 	ldw	r2,12(r3)
    2fcc:	e0bfff15 	stw	r2,-4(fp)
	for (i = 0; i < 100; i++) {
    2fd0:	d026d215 	stw	zero,-25784(gp)
    2fd4:	00002006 	br	3058 <init_ADC+0xf0>
		temp1[8]  = (((i+1)/100)%10) 	+ 0x30;
    2fd8:	d0a6d217 	ldw	r2,-25784(gp)
    2fdc:	11000044 	addi	r4,r2,1
    2fe0:	01401904 	movi	r5,100
    2fe4:	000a5e00 	call	a5e0 <__divsi3>
    2fe8:	1009883a 	mov	r4,r2
    2fec:	01400284 	movi	r5,10
    2ff0:	000a6400 	call	a640 <__modsi3>
    2ff4:	10800c04 	addi	r2,r2,48
    2ff8:	e0bffe05 	stb	r2,-8(fp)
		temp1[9] = (((i+1)/10)%10) 		+ 0x30;
    2ffc:	d0a6d217 	ldw	r2,-25784(gp)
    3000:	11000044 	addi	r4,r2,1
    3004:	01400284 	movi	r5,10
    3008:	000a5e00 	call	a5e0 <__divsi3>
    300c:	1009883a 	mov	r4,r2
    3010:	01400284 	movi	r5,10
    3014:	000a6400 	call	a640 <__modsi3>
    3018:	10800c04 	addi	r2,r2,48
    301c:	e0bffe45 	stb	r2,-7(fp)
		temp1[10] = ((i+1)%10) 			+ 0x30;
    3020:	d0a6d217 	ldw	r2,-25784(gp)
    3024:	11000044 	addi	r4,r2,1
    3028:	01400284 	movi	r5,10
    302c:	000a6400 	call	a640 <__modsi3>
    3030:	10800c04 	addi	r2,r2,48
    3034:	e0bffe85 	stb	r2,-6(fp)
		LCD_Display(temp1, 2);
    3038:	e13ffc04 	addi	r4,fp,-16
    303c:	01400084 	movi	r5,2
    3040:	00002e00 	call	2e0 <LCD_Display>

		usleep(50);
    3044:	01000c84 	movi	r4,50
    3048:	000b2100 	call	b210 <usleep>

	*fifo_rst = 0x1;
	*adc_on = 0x1;

	char temp1[16] = {"ADC     000/100"};
	for (i = 0; i < 100; i++) {
    304c:	d0a6d217 	ldw	r2,-25784(gp)
    3050:	10800044 	addi	r2,r2,1
    3054:	d0a6d215 	stw	r2,-25784(gp)
    3058:	d0a6d217 	ldw	r2,-25784(gp)
    305c:	10801910 	cmplti	r2,r2,100
    3060:	103fdd1e 	bne	r2,zero,2fd8 <init_ADC+0x70>
		LCD_Display(temp1, 2);

		usleep(50);
	}

	*adc_on = 0x0;
    3064:	d0a00717 	ldw	r2,-32740(gp)
    3068:	10000015 	stw	zero,0(r2)
	*fifo_rst = 0x0;
    306c:	d0a00417 	ldw	r2,-32752(gp)
    3070:	10000015 	stw	zero,0(r2)
}
    3074:	e037883a 	mov	sp,fp
    3078:	dfc00117 	ldw	ra,4(sp)
    307c:	df000017 	ldw	fp,0(sp)
    3080:	dec00204 	addi	sp,sp,8
    3084:	f800283a 	ret

00003088 <init_FIR>:

//===============================
// Initialise FIR Filter:
//===============================
void init_FIR(void)
{
    3088:	defffa04 	addi	sp,sp,-24
    308c:	de00012e 	bgeu	sp,et,3094 <init_FIR+0xc>
    3090:	003da0fa 	break	3
    3094:	dfc00515 	stw	ra,20(sp)
    3098:	df000415 	stw	fp,16(sp)
    309c:	df000404 	addi	fp,sp,16
	LCD_Display("FIR     000/256", 2);
    30a0:	01000074 	movhi	r4,1
    30a4:	2139aa04 	addi	r4,r4,-6488
    30a8:	01400084 	movi	r5,2
    30ac:	00002e00 	call	2e0 <LCD_Display>

	char temp2[16] = {"FIR     000/256"};
    30b0:	00c00074 	movhi	r3,1
    30b4:	18f9aa04 	addi	r3,r3,-6488
    30b8:	18800017 	ldw	r2,0(r3)
    30bc:	e0bffc15 	stw	r2,-16(fp)
    30c0:	18800117 	ldw	r2,4(r3)
    30c4:	e0bffd15 	stw	r2,-12(fp)
    30c8:	18800217 	ldw	r2,8(r3)
    30cc:	e0bffe15 	stw	r2,-8(fp)
    30d0:	18800317 	ldw	r2,12(r3)
    30d4:	e0bfff15 	stw	r2,-4(fp)
	for (i = 0; i < 256; i++) {
    30d8:	d026d215 	stw	zero,-25784(gp)
    30dc:	00002706 	br	317c <init_FIR+0xf4>
		*data 		= 0x0000;
    30e0:	d0a00217 	ldw	r2,-32760(gp)
    30e4:	10000015 	stw	zero,0(r2)
		*data_valid = 0x1;
    30e8:	d0e00317 	ldw	r3,-32756(gp)
    30ec:	00800044 	movi	r2,1
    30f0:	18800015 	stw	r2,0(r3)
		*data_valid = 0x0;
    30f4:	d0a00317 	ldw	r2,-32756(gp)
    30f8:	10000015 	stw	zero,0(r2)

		temp2[8] = (((i+1)/100)%10) 	+ 0x30;
    30fc:	d0a6d217 	ldw	r2,-25784(gp)
    3100:	11000044 	addi	r4,r2,1
    3104:	01401904 	movi	r5,100
    3108:	000a5e00 	call	a5e0 <__divsi3>
    310c:	1009883a 	mov	r4,r2
    3110:	01400284 	movi	r5,10
    3114:	000a6400 	call	a640 <__modsi3>
    3118:	10800c04 	addi	r2,r2,48
    311c:	e0bffe05 	stb	r2,-8(fp)
		temp2[9] = (((i+1)/10)%10) 		+ 0x30;
    3120:	d0a6d217 	ldw	r2,-25784(gp)
    3124:	11000044 	addi	r4,r2,1
    3128:	01400284 	movi	r5,10
    312c:	000a5e00 	call	a5e0 <__divsi3>
    3130:	1009883a 	mov	r4,r2
    3134:	01400284 	movi	r5,10
    3138:	000a6400 	call	a640 <__modsi3>
    313c:	10800c04 	addi	r2,r2,48
    3140:	e0bffe45 	stb	r2,-7(fp)
		temp2[10]=  ((i+1)%10) 			+ 0x30;
    3144:	d0a6d217 	ldw	r2,-25784(gp)
    3148:	11000044 	addi	r4,r2,1
    314c:	01400284 	movi	r5,10
    3150:	000a6400 	call	a640 <__modsi3>
    3154:	10800c04 	addi	r2,r2,48
    3158:	e0bffe85 	stb	r2,-6(fp)
		LCD_Display(temp2, 2);
    315c:	e13ffc04 	addi	r4,fp,-16
    3160:	01400084 	movi	r5,2
    3164:	00002e00 	call	2e0 <LCD_Display>

		usleep(50);
    3168:	01000c84 	movi	r4,50
    316c:	000b2100 	call	b210 <usleep>
void init_FIR(void)
{
	LCD_Display("FIR     000/256", 2);

	char temp2[16] = {"FIR     000/256"};
	for (i = 0; i < 256; i++) {
    3170:	d0a6d217 	ldw	r2,-25784(gp)
    3174:	10800044 	addi	r2,r2,1
    3178:	d0a6d215 	stw	r2,-25784(gp)
    317c:	d0a6d217 	ldw	r2,-25784(gp)
    3180:	10804010 	cmplti	r2,r2,256
    3184:	103fd61e 	bne	r2,zero,30e0 <init_FIR+0x58>
		temp2[10]=  ((i+1)%10) 			+ 0x30;
		LCD_Display(temp2, 2);

		usleep(50);
	}
}
    3188:	e037883a 	mov	sp,fp
    318c:	dfc00117 	ldw	ra,4(sp)
    3190:	df000017 	ldw	fp,0(sp)
    3194:	dec00204 	addi	sp,sp,8
    3198:	f800283a 	ret

0000319c <init_FIFO>:

//===============================
// Initialise FIFOs:
//===============================
void init_FIFO(void)
{
    319c:	defffa04 	addi	sp,sp,-24
    31a0:	de00012e 	bgeu	sp,et,31a8 <init_FIFO+0xc>
    31a4:	003da0fa 	break	3
    31a8:	dfc00515 	stw	ra,20(sp)
    31ac:	df000415 	stw	fp,16(sp)
    31b0:	df000404 	addi	fp,sp,16
	LCD_Display("FIFOs   000/100", 2);
    31b4:	01000074 	movhi	r4,1
    31b8:	2139ae04 	addi	r4,r4,-6472
    31bc:	01400084 	movi	r5,2
    31c0:	00002e00 	call	2e0 <LCD_Display>

	*fifo_rst = 0x1;
    31c4:	d0e00417 	ldw	r3,-32752(gp)
    31c8:	00800044 	movi	r2,1
    31cc:	18800015 	stw	r2,0(r3)
	usleep(100);
    31d0:	01001904 	movi	r4,100
    31d4:	000b2100 	call	b210 <usleep>
	*fifo_rst = 0x0;
    31d8:	d0a00417 	ldw	r2,-32752(gp)
    31dc:	10000015 	stw	zero,0(r2)

	char temp3[16] = {"FIFOs   000/100"};
    31e0:	00c00074 	movhi	r3,1
    31e4:	18f9ae04 	addi	r3,r3,-6472
    31e8:	18800017 	ldw	r2,0(r3)
    31ec:	e0bffc15 	stw	r2,-16(fp)
    31f0:	18800117 	ldw	r2,4(r3)
    31f4:	e0bffd15 	stw	r2,-12(fp)
    31f8:	18800217 	ldw	r2,8(r3)
    31fc:	e0bffe15 	stw	r2,-8(fp)
    3200:	18800317 	ldw	r2,12(r3)
    3204:	e0bfff15 	stw	r2,-4(fp)
	for (i = 0; i < 100; i++) {
    3208:	d026d215 	stw	zero,-25784(gp)
    320c:	00002706 	br	32ac <init_FIFO+0x110>
		*data 		= 0x0000;
    3210:	d0a00217 	ldw	r2,-32760(gp)
    3214:	10000015 	stw	zero,0(r2)
		*data_valid = 0x1;
    3218:	d0e00317 	ldw	r3,-32756(gp)
    321c:	00800044 	movi	r2,1
    3220:	18800015 	stw	r2,0(r3)
		*data_valid = 0x0;
    3224:	d0a00317 	ldw	r2,-32756(gp)
    3228:	10000015 	stw	zero,0(r2)

		temp3[8] = (((i+1)/100)%10) 	+ 0x30;
    322c:	d0a6d217 	ldw	r2,-25784(gp)
    3230:	11000044 	addi	r4,r2,1
    3234:	01401904 	movi	r5,100
    3238:	000a5e00 	call	a5e0 <__divsi3>
    323c:	1009883a 	mov	r4,r2
    3240:	01400284 	movi	r5,10
    3244:	000a6400 	call	a640 <__modsi3>
    3248:	10800c04 	addi	r2,r2,48
    324c:	e0bffe05 	stb	r2,-8(fp)
		temp3[9] = (((i+1)/10)%10) 		+ 0x30;
    3250:	d0a6d217 	ldw	r2,-25784(gp)
    3254:	11000044 	addi	r4,r2,1
    3258:	01400284 	movi	r5,10
    325c:	000a5e00 	call	a5e0 <__divsi3>
    3260:	1009883a 	mov	r4,r2
    3264:	01400284 	movi	r5,10
    3268:	000a6400 	call	a640 <__modsi3>
    326c:	10800c04 	addi	r2,r2,48
    3270:	e0bffe45 	stb	r2,-7(fp)
		temp3[10]=  ((i+1)%10) 			+ 0x30;
    3274:	d0a6d217 	ldw	r2,-25784(gp)
    3278:	11000044 	addi	r4,r2,1
    327c:	01400284 	movi	r5,10
    3280:	000a6400 	call	a640 <__modsi3>
    3284:	10800c04 	addi	r2,r2,48
    3288:	e0bffe85 	stb	r2,-6(fp)
		LCD_Display(temp3, 2);
    328c:	e13ffc04 	addi	r4,fp,-16
    3290:	01400084 	movi	r5,2
    3294:	00002e00 	call	2e0 <LCD_Display>

		usleep(50);
    3298:	01000c84 	movi	r4,50
    329c:	000b2100 	call	b210 <usleep>
	*fifo_rst = 0x1;
	usleep(100);
	*fifo_rst = 0x0;

	char temp3[16] = {"FIFOs   000/100"};
	for (i = 0; i < 100; i++) {
    32a0:	d0a6d217 	ldw	r2,-25784(gp)
    32a4:	10800044 	addi	r2,r2,1
    32a8:	d0a6d215 	stw	r2,-25784(gp)
    32ac:	d0a6d217 	ldw	r2,-25784(gp)
    32b0:	10801910 	cmplti	r2,r2,100
    32b4:	103fd61e 	bne	r2,zero,3210 <init_FIFO+0x74>
		temp3[10]=  ((i+1)%10) 			+ 0x30;
		LCD_Display(temp3, 2);

		usleep(50);
	}
}
    32b8:	e037883a 	mov	sp,fp
    32bc:	dfc00117 	ldw	ra,4(sp)
    32c0:	df000017 	ldw	fp,0(sp)
    32c4:	dec00204 	addi	sp,sp,8
    32c8:	f800283a 	ret

000032cc <init_TIMER>:

//===============================
// Initialise Timers:
//===============================
void init_TIMER(void)
{
    32cc:	defffe04 	addi	sp,sp,-8
    32d0:	de00012e 	bgeu	sp,et,32d8 <init_TIMER+0xc>
    32d4:	003da0fa 	break	3
    32d8:	dfc00115 	stw	ra,4(sp)
    32dc:	df000015 	stw	fp,0(sp)
    32e0:	d839883a 	mov	fp,sp
	*CH0_timer_rst = 0x1;
    32e4:	d0e00817 	ldw	r3,-32736(gp)
    32e8:	00800044 	movi	r2,1
    32ec:	18800015 	stw	r2,0(r3)
	usleep(0.1 seconds);
    32f0:	010000b4 	movhi	r4,2
    32f4:	2121a804 	addi	r4,r4,-31072
    32f8:	000b2100 	call	b210 <usleep>
	*CH0_timer_rst = 0x0;
    32fc:	d0a00817 	ldw	r2,-32736(gp)
    3300:	10000015 	stw	zero,0(r2)

	*CH1_timer_rst = 0x1;
    3304:	d0e01917 	ldw	r3,-32668(gp)
    3308:	00800044 	movi	r2,1
    330c:	18800015 	stw	r2,0(r3)
	usleep(0.1 seconds);
    3310:	010000b4 	movhi	r4,2
    3314:	2121a804 	addi	r4,r4,-31072
    3318:	000b2100 	call	b210 <usleep>
	*CH1_timer_rst = 0x0;
    331c:	d0a01917 	ldw	r2,-32668(gp)
    3320:	10000015 	stw	zero,0(r2)

	*CH2_timer_rst = 0x1;
    3324:	d0e02a17 	ldw	r3,-32600(gp)
    3328:	00800044 	movi	r2,1
    332c:	18800015 	stw	r2,0(r3)
	usleep(0.1 seconds);
    3330:	010000b4 	movhi	r4,2
    3334:	2121a804 	addi	r4,r4,-31072
    3338:	000b2100 	call	b210 <usleep>
	*CH2_timer_rst = 0x0;
    333c:	d0a02a17 	ldw	r2,-32600(gp)
    3340:	10000015 	stw	zero,0(r2)

	*CH3_timer_rst = 0x1;
    3344:	d0e03b17 	ldw	r3,-32532(gp)
    3348:	00800044 	movi	r2,1
    334c:	18800015 	stw	r2,0(r3)
	usleep(0.1 seconds);
    3350:	010000b4 	movhi	r4,2
    3354:	2121a804 	addi	r4,r4,-31072
    3358:	000b2100 	call	b210 <usleep>
	*CH3_timer_rst = 0x0;
    335c:	d0a03b17 	ldw	r2,-32532(gp)
    3360:	10000015 	stw	zero,0(r2)

	*CH4_timer_rst = 0x1;
    3364:	d0e04c17 	ldw	r3,-32464(gp)
    3368:	00800044 	movi	r2,1
    336c:	18800015 	stw	r2,0(r3)
	usleep(0.1 seconds);
    3370:	010000b4 	movhi	r4,2
    3374:	2121a804 	addi	r4,r4,-31072
    3378:	000b2100 	call	b210 <usleep>
	*CH4_timer_rst = 0x0;
    337c:	d0a04c17 	ldw	r2,-32464(gp)
    3380:	10000015 	stw	zero,0(r2)
}
    3384:	e037883a 	mov	sp,fp
    3388:	dfc00117 	ldw	ra,4(sp)
    338c:	df000017 	ldw	fp,0(sp)
    3390:	dec00204 	addi	sp,sp,8
    3394:	f800283a 	ret

00003398 <init_DETECTOR>:

//===============================
// Initialise Detection Thresholds:
//===============================
void init_DETECTOR(void)
{
    3398:	defffe04 	addi	sp,sp,-8
    339c:	de00012e 	bgeu	sp,et,33a4 <init_DETECTOR+0xc>
    33a0:	003da0fa 	break	3
    33a4:	dfc00115 	stw	ra,4(sp)
    33a8:	df000015 	stw	fp,0(sp)
    33ac:	d839883a 	mov	fp,sp
	thresholdMultiplier = threshold * sumHsq_CH0 / 100;
    33b0:	d0a05d03 	ldbu	r2,-32396(gp)
    33b4:	11003fcc 	andi	r4,r2,255
    33b8:	2100201c 	xori	r4,r4,128
    33bc:	213fe004 	addi	r4,r4,-128
    33c0:	d1605e17 	ldw	r5,-32392(gp)
    33c4:	000a6b00 	call	a6b0 <__mulsi3>
    33c8:	1009883a 	mov	r4,r2
    33cc:	01401904 	movi	r5,100
    33d0:	000a5e00 	call	a5e0 <__divsi3>
    33d4:	1009883a 	mov	r4,r2
    33d8:	200bd7fa 	srai	r5,r4,31
    33dc:	2005883a 	mov	r2,r4
    33e0:	2807883a 	mov	r3,r5
    33e4:	d0a6d015 	stw	r2,-25792(gp)
    33e8:	01000074 	movhi	r4,1
    33ec:	2107de04 	addi	r4,r4,8056
    33f0:	20c00015 	stw	r3,0(r4)
	thresholdMultiplier = thresholdMultiplier * threshold / 100;
    33f4:	d0a05d03 	ldbu	r2,-32396(gp)
    33f8:	10803fcc 	andi	r2,r2,255
    33fc:	1080201c 	xori	r2,r2,128
    3400:	10bfe004 	addi	r2,r2,-128
    3404:	1007d7fa 	srai	r3,r2,31
    3408:	100b883a 	mov	r5,r2
    340c:	180d883a 	mov	r6,r3
    3410:	d0a6d017 	ldw	r2,-25792(gp)
    3414:	01000074 	movhi	r4,1
    3418:	2107de04 	addi	r4,r4,8056
    341c:	20c00017 	ldw	r3,0(r4)
    3420:	2809883a 	mov	r4,r5
    3424:	300b883a 	mov	r5,r6
    3428:	100d883a 	mov	r6,r2
    342c:	180f883a 	mov	r7,r3
    3430:	00079b40 	call	79b4 <__muldi3>
    3434:	1009883a 	mov	r4,r2
    3438:	180b883a 	mov	r5,r3
    343c:	2005883a 	mov	r2,r4
    3440:	2807883a 	mov	r3,r5
    3444:	1009883a 	mov	r4,r2
    3448:	180b883a 	mov	r5,r3
    344c:	01801904 	movi	r6,100
    3450:	000f883a 	mov	r7,zero
    3454:	0007e300 	call	7e30 <__divdi3>
    3458:	1009883a 	mov	r4,r2
    345c:	180b883a 	mov	r5,r3
    3460:	2005883a 	mov	r2,r4
    3464:	2807883a 	mov	r3,r5
    3468:	d0a6d015 	stw	r2,-25792(gp)
    346c:	01000074 	movhi	r4,1
    3470:	2107de04 	addi	r4,r4,8056
    3474:	20c00015 	stw	r3,0(r4)
	*CH0_threshold	= thresholdMultiplier;
    3478:	d1600917 	ldw	r5,-32732(gp)
    347c:	d0a6d017 	ldw	r2,-25792(gp)
    3480:	01000074 	movhi	r4,1
    3484:	2107de04 	addi	r4,r4,8056
    3488:	20c00017 	ldw	r3,0(r4)
    348c:	28800015 	stw	r2,0(r5)

	thresholdMultiplier = threshold * sumHsq_CH1 / 100;
    3490:	d0a05d03 	ldbu	r2,-32396(gp)
    3494:	11003fcc 	andi	r4,r2,255
    3498:	2100201c 	xori	r4,r4,128
    349c:	213fe004 	addi	r4,r4,-128
    34a0:	d1605f17 	ldw	r5,-32388(gp)
    34a4:	000a6b00 	call	a6b0 <__mulsi3>
    34a8:	1009883a 	mov	r4,r2
    34ac:	01401904 	movi	r5,100
    34b0:	000a5e00 	call	a5e0 <__divsi3>
    34b4:	1009883a 	mov	r4,r2
    34b8:	200bd7fa 	srai	r5,r4,31
    34bc:	2005883a 	mov	r2,r4
    34c0:	2807883a 	mov	r3,r5
    34c4:	d0a6d015 	stw	r2,-25792(gp)
    34c8:	01000074 	movhi	r4,1
    34cc:	2107de04 	addi	r4,r4,8056
    34d0:	20c00015 	stw	r3,0(r4)
	thresholdMultiplier = thresholdMultiplier * threshold / 100;
    34d4:	d0a05d03 	ldbu	r2,-32396(gp)
    34d8:	10803fcc 	andi	r2,r2,255
    34dc:	1080201c 	xori	r2,r2,128
    34e0:	10bfe004 	addi	r2,r2,-128
    34e4:	1007d7fa 	srai	r3,r2,31
    34e8:	100b883a 	mov	r5,r2
    34ec:	180d883a 	mov	r6,r3
    34f0:	d0a6d017 	ldw	r2,-25792(gp)
    34f4:	01000074 	movhi	r4,1
    34f8:	2107de04 	addi	r4,r4,8056
    34fc:	20c00017 	ldw	r3,0(r4)
    3500:	2809883a 	mov	r4,r5
    3504:	300b883a 	mov	r5,r6
    3508:	100d883a 	mov	r6,r2
    350c:	180f883a 	mov	r7,r3
    3510:	00079b40 	call	79b4 <__muldi3>
    3514:	1009883a 	mov	r4,r2
    3518:	180b883a 	mov	r5,r3
    351c:	2005883a 	mov	r2,r4
    3520:	2807883a 	mov	r3,r5
    3524:	1009883a 	mov	r4,r2
    3528:	180b883a 	mov	r5,r3
    352c:	01801904 	movi	r6,100
    3530:	000f883a 	mov	r7,zero
    3534:	0007e300 	call	7e30 <__divdi3>
    3538:	1009883a 	mov	r4,r2
    353c:	180b883a 	mov	r5,r3
    3540:	2005883a 	mov	r2,r4
    3544:	2807883a 	mov	r3,r5
    3548:	d0a6d015 	stw	r2,-25792(gp)
    354c:	01000074 	movhi	r4,1
    3550:	2107de04 	addi	r4,r4,8056
    3554:	20c00015 	stw	r3,0(r4)
	*CH1_threshold	= thresholdMultiplier;
    3558:	d1601a17 	ldw	r5,-32664(gp)
    355c:	d0a6d017 	ldw	r2,-25792(gp)
    3560:	01000074 	movhi	r4,1
    3564:	2107de04 	addi	r4,r4,8056
    3568:	20c00017 	ldw	r3,0(r4)
    356c:	28800015 	stw	r2,0(r5)

	thresholdMultiplier = threshold * sumHsq_CH2 / 100;
    3570:	d0a05d03 	ldbu	r2,-32396(gp)
    3574:	11003fcc 	andi	r4,r2,255
    3578:	2100201c 	xori	r4,r4,128
    357c:	213fe004 	addi	r4,r4,-128
    3580:	d1606017 	ldw	r5,-32384(gp)
    3584:	000a6b00 	call	a6b0 <__mulsi3>
    3588:	1009883a 	mov	r4,r2
    358c:	01401904 	movi	r5,100
    3590:	000a5e00 	call	a5e0 <__divsi3>
    3594:	1009883a 	mov	r4,r2
    3598:	200bd7fa 	srai	r5,r4,31
    359c:	2005883a 	mov	r2,r4
    35a0:	2807883a 	mov	r3,r5
    35a4:	d0a6d015 	stw	r2,-25792(gp)
    35a8:	01000074 	movhi	r4,1
    35ac:	2107de04 	addi	r4,r4,8056
    35b0:	20c00015 	stw	r3,0(r4)
	thresholdMultiplier = thresholdMultiplier * threshold / 100;
    35b4:	d0a05d03 	ldbu	r2,-32396(gp)
    35b8:	10803fcc 	andi	r2,r2,255
    35bc:	1080201c 	xori	r2,r2,128
    35c0:	10bfe004 	addi	r2,r2,-128
    35c4:	1007d7fa 	srai	r3,r2,31
    35c8:	100b883a 	mov	r5,r2
    35cc:	180d883a 	mov	r6,r3
    35d0:	d0a6d017 	ldw	r2,-25792(gp)
    35d4:	01000074 	movhi	r4,1
    35d8:	2107de04 	addi	r4,r4,8056
    35dc:	20c00017 	ldw	r3,0(r4)
    35e0:	2809883a 	mov	r4,r5
    35e4:	300b883a 	mov	r5,r6
    35e8:	100d883a 	mov	r6,r2
    35ec:	180f883a 	mov	r7,r3
    35f0:	00079b40 	call	79b4 <__muldi3>
    35f4:	1009883a 	mov	r4,r2
    35f8:	180b883a 	mov	r5,r3
    35fc:	2005883a 	mov	r2,r4
    3600:	2807883a 	mov	r3,r5
    3604:	1009883a 	mov	r4,r2
    3608:	180b883a 	mov	r5,r3
    360c:	01801904 	movi	r6,100
    3610:	000f883a 	mov	r7,zero
    3614:	0007e300 	call	7e30 <__divdi3>
    3618:	1009883a 	mov	r4,r2
    361c:	180b883a 	mov	r5,r3
    3620:	2005883a 	mov	r2,r4
    3624:	2807883a 	mov	r3,r5
    3628:	d0a6d015 	stw	r2,-25792(gp)
    362c:	01000074 	movhi	r4,1
    3630:	2107de04 	addi	r4,r4,8056
    3634:	20c00015 	stw	r3,0(r4)
	*CH2_threshold	= thresholdMultiplier;
    3638:	d1602b17 	ldw	r5,-32596(gp)
    363c:	d0a6d017 	ldw	r2,-25792(gp)
    3640:	01000074 	movhi	r4,1
    3644:	2107de04 	addi	r4,r4,8056
    3648:	20c00017 	ldw	r3,0(r4)
    364c:	28800015 	stw	r2,0(r5)

	thresholdMultiplier = threshold * sumHsq_CH3 / 100;
    3650:	d0a05d03 	ldbu	r2,-32396(gp)
    3654:	11003fcc 	andi	r4,r2,255
    3658:	2100201c 	xori	r4,r4,128
    365c:	213fe004 	addi	r4,r4,-128
    3660:	d1606117 	ldw	r5,-32380(gp)
    3664:	000a6b00 	call	a6b0 <__mulsi3>
    3668:	1009883a 	mov	r4,r2
    366c:	01401904 	movi	r5,100
    3670:	000a5e00 	call	a5e0 <__divsi3>
    3674:	1009883a 	mov	r4,r2
    3678:	200bd7fa 	srai	r5,r4,31
    367c:	2005883a 	mov	r2,r4
    3680:	2807883a 	mov	r3,r5
    3684:	d0a6d015 	stw	r2,-25792(gp)
    3688:	01000074 	movhi	r4,1
    368c:	2107de04 	addi	r4,r4,8056
    3690:	20c00015 	stw	r3,0(r4)
	thresholdMultiplier = thresholdMultiplier * threshold / 100;
    3694:	d0a05d03 	ldbu	r2,-32396(gp)
    3698:	10803fcc 	andi	r2,r2,255
    369c:	1080201c 	xori	r2,r2,128
    36a0:	10bfe004 	addi	r2,r2,-128
    36a4:	1007d7fa 	srai	r3,r2,31
    36a8:	100b883a 	mov	r5,r2
    36ac:	180d883a 	mov	r6,r3
    36b0:	d0a6d017 	ldw	r2,-25792(gp)
    36b4:	01000074 	movhi	r4,1
    36b8:	2107de04 	addi	r4,r4,8056
    36bc:	20c00017 	ldw	r3,0(r4)
    36c0:	2809883a 	mov	r4,r5
    36c4:	300b883a 	mov	r5,r6
    36c8:	100d883a 	mov	r6,r2
    36cc:	180f883a 	mov	r7,r3
    36d0:	00079b40 	call	79b4 <__muldi3>
    36d4:	1009883a 	mov	r4,r2
    36d8:	180b883a 	mov	r5,r3
    36dc:	2005883a 	mov	r2,r4
    36e0:	2807883a 	mov	r3,r5
    36e4:	1009883a 	mov	r4,r2
    36e8:	180b883a 	mov	r5,r3
    36ec:	01801904 	movi	r6,100
    36f0:	000f883a 	mov	r7,zero
    36f4:	0007e300 	call	7e30 <__divdi3>
    36f8:	1009883a 	mov	r4,r2
    36fc:	180b883a 	mov	r5,r3
    3700:	2005883a 	mov	r2,r4
    3704:	2807883a 	mov	r3,r5
    3708:	d0a6d015 	stw	r2,-25792(gp)
    370c:	01000074 	movhi	r4,1
    3710:	2107de04 	addi	r4,r4,8056
    3714:	20c00015 	stw	r3,0(r4)
	*CH3_threshold	= thresholdMultiplier;
    3718:	d1603c17 	ldw	r5,-32528(gp)
    371c:	d0a6d017 	ldw	r2,-25792(gp)
    3720:	01000074 	movhi	r4,1
    3724:	2107de04 	addi	r4,r4,8056
    3728:	20c00017 	ldw	r3,0(r4)
    372c:	28800015 	stw	r2,0(r5)

	thresholdMultiplier = threshold * sumHsq_CH4 / 100;
    3730:	d0a05d03 	ldbu	r2,-32396(gp)
    3734:	11003fcc 	andi	r4,r2,255
    3738:	2100201c 	xori	r4,r4,128
    373c:	213fe004 	addi	r4,r4,-128
    3740:	d1606217 	ldw	r5,-32376(gp)
    3744:	000a6b00 	call	a6b0 <__mulsi3>
    3748:	1009883a 	mov	r4,r2
    374c:	01401904 	movi	r5,100
    3750:	000a5e00 	call	a5e0 <__divsi3>
    3754:	1009883a 	mov	r4,r2
    3758:	200bd7fa 	srai	r5,r4,31
    375c:	2005883a 	mov	r2,r4
    3760:	2807883a 	mov	r3,r5
    3764:	d0a6d015 	stw	r2,-25792(gp)
    3768:	01000074 	movhi	r4,1
    376c:	2107de04 	addi	r4,r4,8056
    3770:	20c00015 	stw	r3,0(r4)
	thresholdMultiplier = thresholdMultiplier * threshold / 100;
    3774:	d0a05d03 	ldbu	r2,-32396(gp)
    3778:	10803fcc 	andi	r2,r2,255
    377c:	1080201c 	xori	r2,r2,128
    3780:	10bfe004 	addi	r2,r2,-128
    3784:	1007d7fa 	srai	r3,r2,31
    3788:	100b883a 	mov	r5,r2
    378c:	180d883a 	mov	r6,r3
    3790:	d0a6d017 	ldw	r2,-25792(gp)
    3794:	01000074 	movhi	r4,1
    3798:	2107de04 	addi	r4,r4,8056
    379c:	20c00017 	ldw	r3,0(r4)
    37a0:	2809883a 	mov	r4,r5
    37a4:	300b883a 	mov	r5,r6
    37a8:	100d883a 	mov	r6,r2
    37ac:	180f883a 	mov	r7,r3
    37b0:	00079b40 	call	79b4 <__muldi3>
    37b4:	1009883a 	mov	r4,r2
    37b8:	180b883a 	mov	r5,r3
    37bc:	2005883a 	mov	r2,r4
    37c0:	2807883a 	mov	r3,r5
    37c4:	1009883a 	mov	r4,r2
    37c8:	180b883a 	mov	r5,r3
    37cc:	01801904 	movi	r6,100
    37d0:	000f883a 	mov	r7,zero
    37d4:	0007e300 	call	7e30 <__divdi3>
    37d8:	1009883a 	mov	r4,r2
    37dc:	180b883a 	mov	r5,r3
    37e0:	2005883a 	mov	r2,r4
    37e4:	2807883a 	mov	r3,r5
    37e8:	d0a6d015 	stw	r2,-25792(gp)
    37ec:	01000074 	movhi	r4,1
    37f0:	2107de04 	addi	r4,r4,8056
    37f4:	20c00015 	stw	r3,0(r4)
	*CH4_threshold	= thresholdMultiplier;
    37f8:	d1604d17 	ldw	r5,-32460(gp)
    37fc:	d0a6d017 	ldw	r2,-25792(gp)
    3800:	01000074 	movhi	r4,1
    3804:	2107de04 	addi	r4,r4,8056
    3808:	20c00017 	ldw	r3,0(r4)
    380c:	28800015 	stw	r2,0(r5)
}
    3810:	e037883a 	mov	sp,fp
    3814:	dfc00117 	ldw	ra,4(sp)
    3818:	df000017 	ldw	fp,0(sp)
    381c:	dec00204 	addi	sp,sp,8
    3820:	f800283a 	ret

00003824 <init_SYSTEM>:

//===============================
// MAIN INITIALISE SEQUENCE:
//===============================
void init_SYSTEM(void)
{
    3824:	defffe04 	addi	sp,sp,-8
    3828:	de00012e 	bgeu	sp,et,3830 <init_SYSTEM+0xc>
    382c:	003da0fa 	break	3
    3830:	dfc00115 	stw	ra,4(sp)
    3834:	df000015 	stw	fp,0(sp)
    3838:	d839883a 	mov	fp,sp
	// Set ADC, ADC FIFO & FIR OFF:
		*fifo_rst 		= 0x0;
    383c:	d0a00417 	ldw	r2,-32752(gp)
    3840:	10000015 	stw	zero,0(r2)
		*data_valid 	= 0x0;
    3844:	d0a00317 	ldw	r2,-32756(gp)
    3848:	10000015 	stw	zero,0(r2)
		*adc_on 		= 0x0;
    384c:	d0a00717 	ldw	r2,-32740(gp)
    3850:	10000015 	stw	zero,0(r2)
		*sub_on			= 0x0;
    3854:	d0a00517 	ldw	r2,-32748(gp)
    3858:	10000015 	stw	zero,0(r2)
		*det_on  		= 0x0;
    385c:	d0a00617 	ldw	r2,-32744(gp)
    3860:	10000015 	stw	zero,0(r2)

		*CH0_threshold 	= 0xFFFFFFFF;
    3864:	d0e00917 	ldw	r3,-32732(gp)
    3868:	00bfffc4 	movi	r2,-1
    386c:	18800015 	stw	r2,0(r3)
		*CH0_RD			= 0x0;
    3870:	d0a00b17 	ldw	r2,-32724(gp)
    3874:	10000015 	stw	zero,0(r2)
		*CH0_timer_rst 	= 0x1;
    3878:	d0e00817 	ldw	r3,-32736(gp)
    387c:	00800044 	movi	r2,1
    3880:	18800015 	stw	r2,0(r3)

		*CH1_threshold 	= 0xFFFFFFFF;
    3884:	d0e01a17 	ldw	r3,-32664(gp)
    3888:	00bfffc4 	movi	r2,-1
    388c:	18800015 	stw	r2,0(r3)
		*CH1_RD			= 0x0;
    3890:	d0a01c17 	ldw	r2,-32656(gp)
    3894:	10000015 	stw	zero,0(r2)
		*CH1_timer_rst 	= 0x1;
    3898:	d0e01917 	ldw	r3,-32668(gp)
    389c:	00800044 	movi	r2,1
    38a0:	18800015 	stw	r2,0(r3)

		*CH2_threshold 	= 0xFFFFFFFF;
    38a4:	d0e02b17 	ldw	r3,-32596(gp)
    38a8:	00bfffc4 	movi	r2,-1
    38ac:	18800015 	stw	r2,0(r3)
		*CH2_RD			= 0x0;
    38b0:	d0a02d17 	ldw	r2,-32588(gp)
    38b4:	10000015 	stw	zero,0(r2)
		*CH2_timer_rst 	= 0x1;
    38b8:	d0e02a17 	ldw	r3,-32600(gp)
    38bc:	00800044 	movi	r2,1
    38c0:	18800015 	stw	r2,0(r3)

		*CH3_threshold 	= 0xFFFFFFFF;
    38c4:	d0e03c17 	ldw	r3,-32528(gp)
    38c8:	00bfffc4 	movi	r2,-1
    38cc:	18800015 	stw	r2,0(r3)
		*CH3_RD			= 0x0;
    38d0:	d0a03e17 	ldw	r2,-32520(gp)
    38d4:	10000015 	stw	zero,0(r2)
		*CH3_timer_rst 	= 0x1;
    38d8:	d0e03b17 	ldw	r3,-32532(gp)
    38dc:	00800044 	movi	r2,1
    38e0:	18800015 	stw	r2,0(r3)

		*CH4_threshold 	= 0xFFFFFFFF;
    38e4:	d0e04d17 	ldw	r3,-32460(gp)
    38e8:	00bfffc4 	movi	r2,-1
    38ec:	18800015 	stw	r2,0(r3)
		*CH4_RD			= 0x0;
    38f0:	d0a04f17 	ldw	r2,-32452(gp)
    38f4:	10000015 	stw	zero,0(r2)
		*CH4_timer_rst 	= 0x1;
    38f8:	d0e04c17 	ldw	r3,-32464(gp)
    38fc:	00800044 	movi	r2,1
    3900:	18800015 	stw	r2,0(r3)

		// Start LCD:
		LCD_Init();
    3904:	00001e80 	call	1e8 <LCD_Init>
		LCD_Display("Ultrasonic Array", 1);
    3908:	01000074 	movhi	r4,1
    390c:	2139b204 	addi	r4,r4,-6456
    3910:	01400044 	movi	r5,1
    3914:	00002e00 	call	2e0 <LCD_Display>
		LCD_Display("Sensor - IH CA", 2);
    3918:	01000074 	movhi	r4,1
    391c:	2139b704 	addi	r4,r4,-6436
    3920:	01400084 	movi	r5,2
    3924:	00002e00 	call	2e0 <LCD_Display>

		usleep(1 seconds);
    3928:	010003f4 	movhi	r4,15
    392c:	21109004 	addi	r4,r4,16960
    3930:	000b2100 	call	b210 <usleep>


		LCD_Display("Initialise:     ", 1);
    3934:	01000074 	movhi	r4,1
    3938:	2139bb04 	addi	r4,r4,-6420
    393c:	01400044 	movi	r5,1
    3940:	00002e00 	call	2e0 <LCD_Display>
		init_ADC();
    3944:	0002f680 	call	2f68 <init_ADC>
		usleep(0.5 seconds);
    3948:	01000234 	movhi	r4,8
    394c:	21284804 	addi	r4,r4,-24288
    3950:	000b2100 	call	b210 <usleep>

		init_FIR();
    3954:	00030880 	call	3088 <init_FIR>
		usleep(0.5 seconds);
    3958:	01000234 	movhi	r4,8
    395c:	21284804 	addi	r4,r4,-24288
    3960:	000b2100 	call	b210 <usleep>

		init_FIFO();
    3964:	000319c0 	call	319c <init_FIFO>
		init_TIMER();
    3968:	00032cc0 	call	32cc <init_TIMER>
		init_DETECTOR();
    396c:	00033980 	call	3398 <init_DETECTOR>

		find_constants();
    3970:	0001b540 	call	1b54 <find_constants>

		*fifo_rst = 0x1;
    3974:	d0e00417 	ldw	r3,-32752(gp)
    3978:	00800044 	movi	r2,1
    397c:	18800015 	stw	r2,0(r3)
		usleep(0.1 seconds);
    3980:	010000b4 	movhi	r4,2
    3984:	2121a804 	addi	r4,r4,-31072
    3988:	000b2100 	call	b210 <usleep>
		*fifo_rst = 0x0;
    398c:	d0a00417 	ldw	r2,-32752(gp)
    3990:	10000015 	stw	zero,0(r2)

		*det_on = 0x1;
    3994:	d0e00617 	ldw	r3,-32744(gp)
    3998:	00800044 	movi	r2,1
    399c:	18800015 	stw	r2,0(r3)

		// SYSTEM READY TO RUN:
		LCD_Display(line1, 1);
    39a0:	01000074 	movhi	r4,1
    39a4:	213b3b04 	addi	r4,r4,-4884
    39a8:	01400044 	movi	r5,1
    39ac:	00002e00 	call	2e0 <LCD_Display>

		line2[0] = (((threshold)/100)%10) 	+ 0x30;
    39b0:	d0a05d03 	ldbu	r2,-32396(gp)
    39b4:	11003fcc 	andi	r4,r2,255
    39b8:	2100201c 	xori	r4,r4,128
    39bc:	213fe004 	addi	r4,r4,-128
    39c0:	01401904 	movi	r5,100
    39c4:	000a5e00 	call	a5e0 <__divsi3>
    39c8:	11003fcc 	andi	r4,r2,255
    39cc:	2100201c 	xori	r4,r4,128
    39d0:	213fe004 	addi	r4,r4,-128
    39d4:	01400284 	movi	r5,10
    39d8:	000a6400 	call	a640 <__modsi3>
    39dc:	10800c04 	addi	r2,r2,48
    39e0:	1007883a 	mov	r3,r2
    39e4:	00800074 	movhi	r2,1
    39e8:	10bb3f04 	addi	r2,r2,-4868
    39ec:	10c00005 	stb	r3,0(r2)
		line2[1] = (((threshold)/10)%10) 		+ 0x30;
    39f0:	d0a05d03 	ldbu	r2,-32396(gp)
    39f4:	11003fcc 	andi	r4,r2,255
    39f8:	2100201c 	xori	r4,r4,128
    39fc:	213fe004 	addi	r4,r4,-128
    3a00:	01400284 	movi	r5,10
    3a04:	000a5e00 	call	a5e0 <__divsi3>
    3a08:	11003fcc 	andi	r4,r2,255
    3a0c:	2100201c 	xori	r4,r4,128
    3a10:	213fe004 	addi	r4,r4,-128
    3a14:	01400284 	movi	r5,10
    3a18:	000a6400 	call	a640 <__modsi3>
    3a1c:	10800c04 	addi	r2,r2,48
    3a20:	1007883a 	mov	r3,r2
    3a24:	00800074 	movhi	r2,1
    3a28:	10bb3f04 	addi	r2,r2,-4868
    3a2c:	10c00045 	stb	r3,1(r2)
		line2[2] = ((threshold)%10) 			+ 0x30;
    3a30:	d0a05d03 	ldbu	r2,-32396(gp)
    3a34:	11003fcc 	andi	r4,r2,255
    3a38:	2100201c 	xori	r4,r4,128
    3a3c:	213fe004 	addi	r4,r4,-128
    3a40:	01400284 	movi	r5,10
    3a44:	000a6400 	call	a640 <__modsi3>
    3a48:	10800c04 	addi	r2,r2,48
    3a4c:	1007883a 	mov	r3,r2
    3a50:	00800074 	movhi	r2,1
    3a54:	10bb3f04 	addi	r2,r2,-4868
    3a58:	10c00085 	stb	r3,2(r2)
		LCD_Display(line2, 2);
    3a5c:	01000074 	movhi	r4,1
    3a60:	213b3f04 	addi	r4,r4,-4868
    3a64:	01400084 	movi	r5,2
    3a68:	00002e00 	call	2e0 <LCD_Display>
}
    3a6c:	e037883a 	mov	sp,fp
    3a70:	dfc00117 	ldw	ra,4(sp)
    3a74:	df000017 	ldw	fp,0(sp)
    3a78:	dec00204 	addi	sp,sp,8
    3a7c:	f800283a 	ret

00003a80 <start_SYSTEM>:

//===============================
// Turn on RTL:
//===============================
void start_SYSTEM(void)
{
    3a80:	defffe04 	addi	sp,sp,-8
    3a84:	de00012e 	bgeu	sp,et,3a8c <start_SYSTEM+0xc>
    3a88:	003da0fa 	break	3
    3a8c:	dfc00115 	stw	ra,4(sp)
    3a90:	df000015 	stw	fp,0(sp)
    3a94:	d839883a 	mov	fp,sp
	*fifo_rst 	= 0x0;
    3a98:	d0a00417 	ldw	r2,-32752(gp)
    3a9c:	10000015 	stw	zero,0(r2)
	*data_valid = 0x0;
    3aa0:	d0a00317 	ldw	r2,-32756(gp)
    3aa4:	10000015 	stw	zero,0(r2)

	*sub_on		= 0x1;
    3aa8:	d0e00517 	ldw	r3,-32748(gp)
    3aac:	00800044 	movi	r2,1
    3ab0:	18800015 	stw	r2,0(r3)
	usleep(0.1 seconds);
    3ab4:	010000b4 	movhi	r4,2
    3ab8:	2121a804 	addi	r4,r4,-31072
    3abc:	000b2100 	call	b210 <usleep>
	*adc_on		= 0x1;
    3ac0:	d0e00717 	ldw	r3,-32740(gp)
    3ac4:	00800044 	movi	r2,1
    3ac8:	18800015 	stw	r2,0(r3)
	*det_on		= 0x1;
    3acc:	d0e00617 	ldw	r3,-32744(gp)
    3ad0:	00800044 	movi	r2,1
    3ad4:	18800015 	stw	r2,0(r3)
}
    3ad8:	e037883a 	mov	sp,fp
    3adc:	dfc00117 	ldw	ra,4(sp)
    3ae0:	df000017 	ldw	fp,0(sp)
    3ae4:	dec00204 	addi	sp,sp,8
    3ae8:	f800283a 	ret

00003aec <main>:
#include "LCD.h"
#include "tests.h"
#include "RuntimeFunctions.h"

int main()
{ 
    3aec:	defffc04 	addi	sp,sp,-16
    3af0:	de00012e 	bgeu	sp,et,3af8 <main+0xc>
    3af4:	003da0fa 	break	3
    3af8:	dfc00315 	stw	ra,12(sp)
    3afc:	df000215 	stw	fp,8(sp)
    3b00:	df000204 	addi	fp,sp,8
	// Initialise SYSTEM components:
	usleep(0.1 seconds);
    3b04:	010000b4 	movhi	r4,2
    3b08:	2121a804 	addi	r4,r4,-31072
    3b0c:	000b2100 	call	b210 <usleep>
	init_SYSTEM();
    3b10:	00038240 	call	3824 <init_SYSTEM>

#ifdef RUN
	start_SYSTEM();
    3b14:	0003a800 	call	3a80 <start_SYSTEM>
#elif defined DETECTION_TEST
		DETECTION_test();		// Run a test vector to make sure Detection and Quadratic Interpolation are functioning
#elif defined RUN
		// Running loop: Sample for any detections on the 5 Channels,
		// Then perform arithmetic to solve system of equations for R, Yaw and Elevation:
		sampleChannels();
    3b18:	000037c0 	call	37c <sampleChannels>
		find_coordinates(counter,Nreceivers,calc_mode,&R,&phi,&theta);
    3b1c:	d1600117 	ldw	r5,-32764(gp)
    3b20:	d1a6c317 	ldw	r6,-25844(gp)
    3b24:	d0a6c404 	addi	r2,gp,-25840
    3b28:	d8800015 	stw	r2,0(sp)
    3b2c:	d0a6c604 	addi	r2,gp,-25832
    3b30:	d8800115 	stw	r2,4(sp)
    3b34:	01000074 	movhi	r4,1
    3b38:	2107ec04 	addi	r4,r4,8112
    3b3c:	d1e6ce04 	addi	r7,gp,-25800
    3b40:	0001e140 	call	1e14 <find_coordinates>
		Display_Results(calc_mode, R, phi, theta);
    3b44:	d126c317 	ldw	r4,-25844(gp)
    3b48:	d0a6ce17 	ldw	r2,-25800(gp)
    3b4c:	d0e6c417 	ldw	r3,-25840(gp)
    3b50:	d1e6c617 	ldw	r7,-25832(gp)
    3b54:	100b883a 	mov	r5,r2
    3b58:	180d883a 	mov	r6,r3
    3b5c:	00018ec0 	call	18ec <Display_Results>
#else
		usleep(0.25 seconds);
#endif
	}
    3b60:	003fed06 	br	3b18 <main+0x2c>

00003b64 <floor>:
    3b64:	2805d53a 	srai	r2,r5,20
    3b68:	defff604 	addi	sp,sp,-40
    3b6c:	dd800615 	stw	r22,24(sp)
    3b70:	10c1ffcc 	andi	r3,r2,2047
    3b74:	1dbf0044 	addi	r22,r3,-1023
    3b78:	008004c4 	movi	r2,19
    3b7c:	ddc00715 	stw	r23,28(sp)
    3b80:	dc800215 	stw	r18,8(sp)
    3b84:	dc400115 	stw	r17,4(sp)
    3b88:	dc000015 	stw	r16,0(sp)
    3b8c:	dfc00915 	stw	ra,36(sp)
    3b90:	df000815 	stw	fp,32(sp)
    3b94:	dd400515 	stw	r21,20(sp)
    3b98:	dd000415 	stw	r20,16(sp)
    3b9c:	dcc00315 	stw	r19,12(sp)
    3ba0:	2021883a 	mov	r16,r4
    3ba4:	2823883a 	mov	r17,r5
    3ba8:	282f883a 	mov	r23,r5
    3bac:	2025883a 	mov	r18,r4
    3bb0:	15802916 	blt	r2,r22,3c58 <floor+0xf4>
    3bb4:	b0004816 	blt	r22,zero,3cd8 <floor+0x174>
    3bb8:	00800434 	movhi	r2,16
    3bbc:	10bfffc4 	addi	r2,r2,-1
    3bc0:	15b9d83a 	sra	fp,r2,r22
    3bc4:	282f883a 	mov	r23,r5
    3bc8:	e144703a 	and	r2,fp,r5
    3bcc:	1104b03a 	or	r2,r2,r4
    3bd0:	10001326 	beq	r2,zero,3c20 <floor+0xbc>
    3bd4:	00a20034 	movhi	r2,34816
    3bd8:	109d6704 	addi	r2,r2,30108
    3bdc:	00df8e34 	movhi	r3,32312
    3be0:	18f90f04 	addi	r3,r3,-7108
    3be4:	180f883a 	mov	r7,r3
    3be8:	100d883a 	mov	r6,r2
    3bec:	00098a40 	call	98a4 <__adddf3>
    3bf0:	180b883a 	mov	r5,r3
    3bf4:	000d883a 	mov	r6,zero
    3bf8:	000f883a 	mov	r7,zero
    3bfc:	1009883a 	mov	r4,r2
    3c00:	0009fbc0 	call	9fbc <__gtdf2>
    3c04:	0080040e 	bge	zero,r2,3c18 <floor+0xb4>
    3c08:	88004416 	blt	r17,zero,3d1c <floor+0x1b8>
    3c0c:	0704303a 	nor	r2,zero,fp
    3c10:	b8ae703a 	and	r23,r23,r2
    3c14:	0025883a 	mov	r18,zero
    3c18:	9021883a 	mov	r16,r18
    3c1c:	b823883a 	mov	r17,r23
    3c20:	8005883a 	mov	r2,r16
    3c24:	8807883a 	mov	r3,r17
    3c28:	dfc00917 	ldw	ra,36(sp)
    3c2c:	df000817 	ldw	fp,32(sp)
    3c30:	ddc00717 	ldw	r23,28(sp)
    3c34:	dd800617 	ldw	r22,24(sp)
    3c38:	dd400517 	ldw	r21,20(sp)
    3c3c:	dd000417 	ldw	r20,16(sp)
    3c40:	dcc00317 	ldw	r19,12(sp)
    3c44:	dc800217 	ldw	r18,8(sp)
    3c48:	dc400117 	ldw	r17,4(sp)
    3c4c:	dc000017 	ldw	r16,0(sp)
    3c50:	dec00a04 	addi	sp,sp,40
    3c54:	f800283a 	ret
    3c58:	00800cc4 	movi	r2,51
    3c5c:	15801616 	blt	r2,r22,3cb8 <floor+0x154>
    3c60:	18befb44 	addi	r2,r3,-1043
    3c64:	00ffffc4 	movi	r3,-1
    3c68:	18b8d83a 	srl	fp,r3,r2
    3c6c:	e104703a 	and	r2,fp,r4
    3c70:	103feb26 	beq	r2,zero,3c20 <floor+0xbc>
    3c74:	00a20034 	movhi	r2,34816
    3c78:	109d6704 	addi	r2,r2,30108
    3c7c:	00df8e34 	movhi	r3,32312
    3c80:	18f90f04 	addi	r3,r3,-7108
    3c84:	180f883a 	mov	r7,r3
    3c88:	100d883a 	mov	r6,r2
    3c8c:	00098a40 	call	98a4 <__adddf3>
    3c90:	180b883a 	mov	r5,r3
    3c94:	000d883a 	mov	r6,zero
    3c98:	000f883a 	mov	r7,zero
    3c9c:	1009883a 	mov	r4,r2
    3ca0:	0009fbc0 	call	9fbc <__gtdf2>
    3ca4:	0080210e 	bge	zero,r2,3d2c <floor+0x1c8>
    3ca8:	88002216 	blt	r17,zero,3d34 <floor+0x1d0>
    3cac:	0704303a 	nor	r2,zero,fp
    3cb0:	90a4703a 	and	r18,r18,r2
    3cb4:	003fd806 	br	3c18 <floor+0xb4>
    3cb8:	00810004 	movi	r2,1024
    3cbc:	b0bfd81e 	bne	r22,r2,3c20 <floor+0xbc>
    3cc0:	800d883a 	mov	r6,r16
    3cc4:	280f883a 	mov	r7,r5
    3cc8:	00098a40 	call	98a4 <__adddf3>
    3ccc:	1021883a 	mov	r16,r2
    3cd0:	1823883a 	mov	r17,r3
    3cd4:	003fd206 	br	3c20 <floor+0xbc>
    3cd8:	00a20034 	movhi	r2,34816
    3cdc:	109d6704 	addi	r2,r2,30108
    3ce0:	00df8e34 	movhi	r3,32312
    3ce4:	18f90f04 	addi	r3,r3,-7108
    3ce8:	180f883a 	mov	r7,r3
    3cec:	100d883a 	mov	r6,r2
    3cf0:	00098a40 	call	98a4 <__adddf3>
    3cf4:	180b883a 	mov	r5,r3
    3cf8:	000d883a 	mov	r6,zero
    3cfc:	000f883a 	mov	r7,zero
    3d00:	1009883a 	mov	r4,r2
    3d04:	0009fbc0 	call	9fbc <__gtdf2>
    3d08:	00bfc30e 	bge	zero,r2,3c18 <floor+0xb4>
    3d0c:	88001416 	blt	r17,zero,3d60 <floor+0x1fc>
    3d10:	002f883a 	mov	r23,zero
    3d14:	0025883a 	mov	r18,zero
    3d18:	003fbf06 	br	3c18 <floor+0xb4>
    3d1c:	00800434 	movhi	r2,16
    3d20:	1585d83a 	sra	r2,r2,r22
    3d24:	88af883a 	add	r23,r17,r2
    3d28:	003fb806 	br	3c0c <floor+0xa8>
    3d2c:	882f883a 	mov	r23,r17
    3d30:	003fb906 	br	3c18 <floor+0xb4>
    3d34:	00800504 	movi	r2,20
    3d38:	b0801126 	beq	r22,r2,3d80 <floor+0x21c>
    3d3c:	00c00d04 	movi	r3,52
    3d40:	1d87c83a 	sub	r3,r3,r22
    3d44:	00800044 	movi	r2,1
    3d48:	10c4983a 	sll	r2,r2,r3
    3d4c:	8085883a 	add	r2,r16,r2
    3d50:	1400012e 	bgeu	r2,r16,3d58 <floor+0x1f4>
    3d54:	8dc00044 	addi	r23,r17,1
    3d58:	1025883a 	mov	r18,r2
    3d5c:	003fd306 	br	3cac <floor+0x148>
    3d60:	00a00034 	movhi	r2,32768
    3d64:	10bfffc4 	addi	r2,r2,-1
    3d68:	8884703a 	and	r2,r17,r2
    3d6c:	8084b03a 	or	r2,r16,r2
    3d70:	103fee26 	beq	r2,zero,3d2c <floor+0x1c8>
    3d74:	05effc34 	movhi	r23,49136
    3d78:	0025883a 	mov	r18,zero
    3d7c:	003fa606 	br	3c18 <floor+0xb4>
    3d80:	8dc00044 	addi	r23,r17,1
    3d84:	003fc906 	br	3cac <floor+0x148>

00003d88 <sin>:
    3d88:	00a00034 	movhi	r2,32768
    3d8c:	10bfffc4 	addi	r2,r2,-1
    3d90:	defffa04 	addi	sp,sp,-24
    3d94:	114c703a 	and	r6,r2,r5
    3d98:	008ffa74 	movhi	r2,16361
    3d9c:	10887ec4 	addi	r2,r2,8699
    3da0:	dfc00515 	stw	ra,20(sp)
    3da4:	2011883a 	mov	r8,r4
    3da8:	1180220e 	bge	r2,r6,3e34 <sin+0xac>
    3dac:	009ffc34 	movhi	r2,32752
    3db0:	10bfffc4 	addi	r2,r2,-1
    3db4:	11800a0e 	bge	r2,r6,3de0 <sin+0x58>
    3db8:	280f883a 	mov	r7,r5
    3dbc:	400d883a 	mov	r6,r8
    3dc0:	00098240 	call	9824 <__subdf3>
    3dc4:	100d883a 	mov	r6,r2
    3dc8:	180f883a 	mov	r7,r3
    3dcc:	3005883a 	mov	r2,r6
    3dd0:	3807883a 	mov	r3,r7
    3dd4:	dfc00517 	ldw	ra,20(sp)
    3dd8:	dec00604 	addi	sp,sp,24
    3ddc:	f800283a 	ret
    3de0:	d9800104 	addi	r6,sp,4
    3de4:	00055980 	call	5598 <__ieee754_rem_pio2>
    3de8:	10c000cc 	andi	r3,r2,3
    3dec:	01000044 	movi	r4,1
    3df0:	19001b26 	beq	r3,r4,3e60 <sin+0xd8>
    3df4:	00800084 	movi	r2,2
    3df8:	18803126 	beq	r3,r2,3ec0 <sin+0x138>
    3dfc:	1800241e 	bne	r3,zero,3e90 <sin+0x108>
    3e00:	d8800117 	ldw	r2,4(sp)
    3e04:	da000317 	ldw	r8,12(sp)
    3e08:	d8c00217 	ldw	r3,8(sp)
    3e0c:	da400417 	ldw	r9,16(sp)
    3e10:	d9000015 	stw	r4,0(sp)
    3e14:	400d883a 	mov	r6,r8
    3e18:	480f883a 	mov	r7,r9
    3e1c:	180b883a 	mov	r5,r3
    3e20:	1009883a 	mov	r4,r2
    3e24:	00074380 	call	7438 <__kernel_sin>
    3e28:	100d883a 	mov	r6,r2
    3e2c:	180f883a 	mov	r7,r3
    3e30:	003fe606 	br	3dcc <sin+0x44>
    3e34:	000d883a 	mov	r6,zero
    3e38:	000f883a 	mov	r7,zero
    3e3c:	d8000015 	stw	zero,0(sp)
    3e40:	00074380 	call	7438 <__kernel_sin>
    3e44:	100d883a 	mov	r6,r2
    3e48:	180f883a 	mov	r7,r3
    3e4c:	3005883a 	mov	r2,r6
    3e50:	3807883a 	mov	r3,r7
    3e54:	dfc00517 	ldw	ra,20(sp)
    3e58:	dec00604 	addi	sp,sp,24
    3e5c:	f800283a 	ret
    3e60:	d8800117 	ldw	r2,4(sp)
    3e64:	da000317 	ldw	r8,12(sp)
    3e68:	d8c00217 	ldw	r3,8(sp)
    3e6c:	da400417 	ldw	r9,16(sp)
    3e70:	400d883a 	mov	r6,r8
    3e74:	180b883a 	mov	r5,r3
    3e78:	480f883a 	mov	r7,r9
    3e7c:	1009883a 	mov	r4,r2
    3e80:	00060880 	call	6088 <__kernel_cos>
    3e84:	100d883a 	mov	r6,r2
    3e88:	180f883a 	mov	r7,r3
    3e8c:	003fcf06 	br	3dcc <sin+0x44>
    3e90:	d8800117 	ldw	r2,4(sp)
    3e94:	da000317 	ldw	r8,12(sp)
    3e98:	d8c00217 	ldw	r3,8(sp)
    3e9c:	da400417 	ldw	r9,16(sp)
    3ea0:	400d883a 	mov	r6,r8
    3ea4:	180b883a 	mov	r5,r3
    3ea8:	480f883a 	mov	r7,r9
    3eac:	1009883a 	mov	r4,r2
    3eb0:	00060880 	call	6088 <__kernel_cos>
    3eb4:	100d883a 	mov	r6,r2
    3eb8:	19e0003c 	xorhi	r7,r3,32768
    3ebc:	003fc306 	br	3dcc <sin+0x44>
    3ec0:	d8800117 	ldw	r2,4(sp)
    3ec4:	da000317 	ldw	r8,12(sp)
    3ec8:	d8c00217 	ldw	r3,8(sp)
    3ecc:	da400417 	ldw	r9,16(sp)
    3ed0:	d9000015 	stw	r4,0(sp)
    3ed4:	400d883a 	mov	r6,r8
    3ed8:	480f883a 	mov	r7,r9
    3edc:	180b883a 	mov	r5,r3
    3ee0:	1009883a 	mov	r4,r2
    3ee4:	00074380 	call	7438 <__kernel_sin>
    3ee8:	100d883a 	mov	r6,r2
    3eec:	19e0003c 	xorhi	r7,r3,32768
    3ef0:	003fb606 	br	3dcc <sin+0x44>

00003ef4 <acos>:
    3ef4:	defff104 	addi	sp,sp,-60
    3ef8:	dd000d15 	stw	r20,52(sp)
    3efc:	05000074 	movhi	r20,1
    3f00:	a5017004 	addi	r20,r20,1472
    3f04:	dcc00c15 	stw	r19,48(sp)
    3f08:	dc800b15 	stw	r18,44(sp)
    3f0c:	dc400a15 	stw	r17,40(sp)
    3f10:	dc000915 	stw	r16,36(sp)
    3f14:	2025883a 	mov	r18,r4
    3f18:	dfc00e15 	stw	ra,56(sp)
    3f1c:	2827883a 	mov	r19,r5
    3f20:	00042840 	call	4284 <__ieee754_acos>
    3f24:	a1000017 	ldw	r4,0(r20)
    3f28:	1021883a 	mov	r16,r2
    3f2c:	00bfffc4 	movi	r2,-1
    3f30:	1823883a 	mov	r17,r3
    3f34:	20800426 	beq	r4,r2,3f48 <acos+0x54>
    3f38:	9009883a 	mov	r4,r18
    3f3c:	980b883a 	mov	r5,r19
    3f40:	00077680 	call	7768 <__isnand>
    3f44:	10000a26 	beq	r2,zero,3f70 <acos+0x7c>
    3f48:	8005883a 	mov	r2,r16
    3f4c:	8807883a 	mov	r3,r17
    3f50:	dfc00e17 	ldw	ra,56(sp)
    3f54:	dd000d17 	ldw	r20,52(sp)
    3f58:	dcc00c17 	ldw	r19,48(sp)
    3f5c:	dc800b17 	ldw	r18,44(sp)
    3f60:	dc400a17 	ldw	r17,40(sp)
    3f64:	dc000917 	ldw	r16,36(sp)
    3f68:	dec00f04 	addi	sp,sp,60
    3f6c:	f800283a 	ret
    3f70:	9009883a 	mov	r4,r18
    3f74:	980b883a 	mov	r5,r19
    3f78:	00077500 	call	7750 <fabs>
    3f7c:	0011883a 	mov	r8,zero
    3f80:	024ffc34 	movhi	r9,16368
    3f84:	180b883a 	mov	r5,r3
    3f88:	480f883a 	mov	r7,r9
    3f8c:	1009883a 	mov	r4,r2
    3f90:	400d883a 	mov	r6,r8
    3f94:	0009fbc0 	call	9fbc <__gtdf2>
    3f98:	00bfeb0e 	bge	zero,r2,3f48 <acos+0x54>
    3f9c:	00800044 	movi	r2,1
    3fa0:	00c00074 	movhi	r3,1
    3fa4:	18f9c004 	addi	r3,r3,-6400
    3fa8:	01000074 	movhi	r4,1
    3fac:	2139c304 	addi	r4,r4,-6388
    3fb0:	d8800015 	stw	r2,0(sp)
    3fb4:	d8c00115 	stw	r3,4(sp)
    3fb8:	dcc00315 	stw	r19,12(sp)
    3fbc:	d8000815 	stw	zero,32(sp)
    3fc0:	dc800415 	stw	r18,16(sp)
    3fc4:	dcc00515 	stw	r19,20(sp)
    3fc8:	dc800215 	stw	r18,8(sp)
    3fcc:	00077a00 	call	77a0 <nan>
    3fd0:	a1800017 	ldw	r6,0(r20)
    3fd4:	d8800615 	stw	r2,24(sp)
    3fd8:	00800084 	movi	r2,2
    3fdc:	d8c00715 	stw	r3,28(sp)
    3fe0:	30800826 	beq	r6,r2,4004 <acos+0x110>
    3fe4:	d809883a 	mov	r4,sp
    3fe8:	00077980 	call	7798 <matherr>
    3fec:	10000526 	beq	r2,zero,4004 <acos+0x110>
    3ff0:	d8800817 	ldw	r2,32(sp)
    3ff4:	1000071e 	bne	r2,zero,4014 <acos+0x120>
    3ff8:	dc000617 	ldw	r16,24(sp)
    3ffc:	dc400717 	ldw	r17,28(sp)
    4000:	003fd106 	br	3f48 <acos+0x54>
    4004:	000b01c0 	call	b01c <__errno>
    4008:	00c00844 	movi	r3,33
    400c:	10c00015 	stw	r3,0(r2)
    4010:	003ff706 	br	3ff0 <acos+0xfc>
    4014:	000b01c0 	call	b01c <__errno>
    4018:	d8c00817 	ldw	r3,32(sp)
    401c:	10c00015 	stw	r3,0(r2)
    4020:	003ff506 	br	3ff8 <acos+0x104>

00004024 <asin>:
    4024:	defff104 	addi	sp,sp,-60
    4028:	dd000d15 	stw	r20,52(sp)
    402c:	05000074 	movhi	r20,1
    4030:	a5017004 	addi	r20,r20,1472
    4034:	dcc00c15 	stw	r19,48(sp)
    4038:	dc800b15 	stw	r18,44(sp)
    403c:	dc400a15 	stw	r17,40(sp)
    4040:	dc000915 	stw	r16,36(sp)
    4044:	2025883a 	mov	r18,r4
    4048:	dfc00e15 	stw	ra,56(sp)
    404c:	2827883a 	mov	r19,r5
    4050:	0004cdc0 	call	4cdc <__ieee754_asin>
    4054:	a1000017 	ldw	r4,0(r20)
    4058:	1021883a 	mov	r16,r2
    405c:	00bfffc4 	movi	r2,-1
    4060:	1823883a 	mov	r17,r3
    4064:	20800426 	beq	r4,r2,4078 <asin+0x54>
    4068:	9009883a 	mov	r4,r18
    406c:	980b883a 	mov	r5,r19
    4070:	00077680 	call	7768 <__isnand>
    4074:	10000a26 	beq	r2,zero,40a0 <asin+0x7c>
    4078:	8005883a 	mov	r2,r16
    407c:	8807883a 	mov	r3,r17
    4080:	dfc00e17 	ldw	ra,56(sp)
    4084:	dd000d17 	ldw	r20,52(sp)
    4088:	dcc00c17 	ldw	r19,48(sp)
    408c:	dc800b17 	ldw	r18,44(sp)
    4090:	dc400a17 	ldw	r17,40(sp)
    4094:	dc000917 	ldw	r16,36(sp)
    4098:	dec00f04 	addi	sp,sp,60
    409c:	f800283a 	ret
    40a0:	9009883a 	mov	r4,r18
    40a4:	980b883a 	mov	r5,r19
    40a8:	00077500 	call	7750 <fabs>
    40ac:	0011883a 	mov	r8,zero
    40b0:	024ffc34 	movhi	r9,16368
    40b4:	180b883a 	mov	r5,r3
    40b8:	480f883a 	mov	r7,r9
    40bc:	1009883a 	mov	r4,r2
    40c0:	400d883a 	mov	r6,r8
    40c4:	0009fbc0 	call	9fbc <__gtdf2>
    40c8:	00bfeb0e 	bge	zero,r2,4078 <asin+0x54>
    40cc:	00800044 	movi	r2,1
    40d0:	00c00074 	movhi	r3,1
    40d4:	18f9c204 	addi	r3,r3,-6392
    40d8:	01000074 	movhi	r4,1
    40dc:	2139c304 	addi	r4,r4,-6388
    40e0:	d8800015 	stw	r2,0(sp)
    40e4:	d8c00115 	stw	r3,4(sp)
    40e8:	dcc00315 	stw	r19,12(sp)
    40ec:	d8000815 	stw	zero,32(sp)
    40f0:	dc800415 	stw	r18,16(sp)
    40f4:	dcc00515 	stw	r19,20(sp)
    40f8:	dc800215 	stw	r18,8(sp)
    40fc:	00077a00 	call	77a0 <nan>
    4100:	a1800017 	ldw	r6,0(r20)
    4104:	d8800615 	stw	r2,24(sp)
    4108:	00800084 	movi	r2,2
    410c:	d8c00715 	stw	r3,28(sp)
    4110:	30800826 	beq	r6,r2,4134 <asin+0x110>
    4114:	d809883a 	mov	r4,sp
    4118:	00077980 	call	7798 <matherr>
    411c:	10000526 	beq	r2,zero,4134 <asin+0x110>
    4120:	d8800817 	ldw	r2,32(sp)
    4124:	1000071e 	bne	r2,zero,4144 <asin+0x120>
    4128:	dc000617 	ldw	r16,24(sp)
    412c:	dc400717 	ldw	r17,28(sp)
    4130:	003fd106 	br	4078 <asin+0x54>
    4134:	000b01c0 	call	b01c <__errno>
    4138:	00c00844 	movi	r3,33
    413c:	10c00015 	stw	r3,0(r2)
    4140:	003ff706 	br	4120 <asin+0xfc>
    4144:	000b01c0 	call	b01c <__errno>
    4148:	d8c00817 	ldw	r3,32(sp)
    414c:	10c00015 	stw	r3,0(r2)
    4150:	003ff506 	br	4128 <asin+0x104>

00004154 <sqrt>:
    4154:	defff104 	addi	sp,sp,-60
    4158:	dd000d15 	stw	r20,52(sp)
    415c:	05000074 	movhi	r20,1
    4160:	a5017004 	addi	r20,r20,1472
    4164:	dcc00c15 	stw	r19,48(sp)
    4168:	dc800b15 	stw	r18,44(sp)
    416c:	dc400a15 	stw	r17,40(sp)
    4170:	dc000915 	stw	r16,36(sp)
    4174:	2025883a 	mov	r18,r4
    4178:	dfc00e15 	stw	ra,56(sp)
    417c:	2827883a 	mov	r19,r5
    4180:	0005dc00 	call	5dc0 <__ieee754_sqrt>
    4184:	a1000017 	ldw	r4,0(r20)
    4188:	1021883a 	mov	r16,r2
    418c:	00bfffc4 	movi	r2,-1
    4190:	1823883a 	mov	r17,r3
    4194:	20800a26 	beq	r4,r2,41c0 <sqrt+0x6c>
    4198:	9009883a 	mov	r4,r18
    419c:	980b883a 	mov	r5,r19
    41a0:	00077680 	call	7768 <__isnand>
    41a4:	1000061e 	bne	r2,zero,41c0 <sqrt+0x6c>
    41a8:	000d883a 	mov	r6,zero
    41ac:	000f883a 	mov	r7,zero
    41b0:	9009883a 	mov	r4,r18
    41b4:	980b883a 	mov	r5,r19
    41b8:	000a0cc0 	call	a0cc <__ltdf2>
    41bc:	10000a16 	blt	r2,zero,41e8 <sqrt+0x94>
    41c0:	8005883a 	mov	r2,r16
    41c4:	8807883a 	mov	r3,r17
    41c8:	dfc00e17 	ldw	ra,56(sp)
    41cc:	dd000d17 	ldw	r20,52(sp)
    41d0:	dcc00c17 	ldw	r19,48(sp)
    41d4:	dc800b17 	ldw	r18,44(sp)
    41d8:	dc400a17 	ldw	r17,40(sp)
    41dc:	dc000917 	ldw	r16,36(sp)
    41e0:	dec00f04 	addi	sp,sp,60
    41e4:	f800283a 	ret
    41e8:	a4000017 	ldw	r16,0(r20)
    41ec:	00800044 	movi	r2,1
    41f0:	00c00074 	movhi	r3,1
    41f4:	18f9c404 	addi	r3,r3,-6384
    41f8:	d8800015 	stw	r2,0(sp)
    41fc:	d8c00115 	stw	r3,4(sp)
    4200:	dcc00315 	stw	r19,12(sp)
    4204:	d8000815 	stw	zero,32(sp)
    4208:	dc800415 	stw	r18,16(sp)
    420c:	dcc00515 	stw	r19,20(sp)
    4210:	dc800215 	stw	r18,8(sp)
    4214:	80000a1e 	bne	r16,zero,4240 <sqrt+0xec>
    4218:	d8000615 	stw	zero,24(sp)
    421c:	d8000715 	stw	zero,28(sp)
    4220:	d809883a 	mov	r4,sp
    4224:	00077980 	call	7798 <matherr>
    4228:	10000e26 	beq	r2,zero,4264 <sqrt+0x110>
    422c:	d8800817 	ldw	r2,32(sp)
    4230:	1000101e 	bne	r2,zero,4274 <sqrt+0x120>
    4234:	dc000617 	ldw	r16,24(sp)
    4238:	dc400717 	ldw	r17,28(sp)
    423c:	003fe006 	br	41c0 <sqrt+0x6c>
    4240:	0009883a 	mov	r4,zero
    4244:	000d883a 	mov	r6,zero
    4248:	000b883a 	mov	r5,zero
    424c:	000f883a 	mov	r7,zero
    4250:	0009cdc0 	call	9cdc <__divdf3>
    4254:	d8800615 	stw	r2,24(sp)
    4258:	00800084 	movi	r2,2
    425c:	d8c00715 	stw	r3,28(sp)
    4260:	80bfef1e 	bne	r16,r2,4220 <sqrt+0xcc>
    4264:	000b01c0 	call	b01c <__errno>
    4268:	00c00844 	movi	r3,33
    426c:	10c00015 	stw	r3,0(r2)
    4270:	003fee06 	br	422c <sqrt+0xd8>
    4274:	000b01c0 	call	b01c <__errno>
    4278:	d8c00817 	ldw	r3,32(sp)
    427c:	10c00015 	stw	r3,0(r2)
    4280:	003fec06 	br	4234 <sqrt+0xe0>

00004284 <__ieee754_acos>:
    4284:	00a00034 	movhi	r2,32768
    4288:	10bfffc4 	addi	r2,r2,-1
    428c:	deffeb04 	addi	sp,sp,-84
    4290:	288c703a 	and	r6,r5,r2
    4294:	008ffc34 	movhi	r2,16368
    4298:	10bfffc4 	addi	r2,r2,-1
    429c:	dfc01415 	stw	ra,80(sp)
    42a0:	ddc01315 	stw	r23,76(sp)
    42a4:	dd801215 	stw	r22,72(sp)
    42a8:	dd401115 	stw	r21,68(sp)
    42ac:	dd001015 	stw	r20,64(sp)
    42b0:	dcc00f15 	stw	r19,60(sp)
    42b4:	dc800e15 	stw	r18,56(sp)
    42b8:	dc400d15 	stw	r17,52(sp)
    42bc:	dc000c15 	stw	r16,48(sp)
    42c0:	d9000615 	stw	r4,24(sp)
    42c4:	d9400715 	stw	r5,28(sp)
    42c8:	1180150e 	bge	r2,r6,4320 <__ieee754_acos+0x9c>
    42cc:	2005883a 	mov	r2,r4
    42d0:	01300434 	movhi	r4,49168
    42d4:	3109883a 	add	r4,r6,r4
    42d8:	2088b03a 	or	r4,r4,r2
    42dc:	2001a51e 	bne	r4,zero,4974 <__ieee754_acos+0x6f0>
    42e0:	0142790e 	bge	zero,r5,4cc8 <__ieee754_acos+0xa44>
    42e4:	000d883a 	mov	r6,zero
    42e8:	000f883a 	mov	r7,zero
    42ec:	3005883a 	mov	r2,r6
    42f0:	3807883a 	mov	r3,r7
    42f4:	dfc01417 	ldw	ra,80(sp)
    42f8:	ddc01317 	ldw	r23,76(sp)
    42fc:	dd801217 	ldw	r22,72(sp)
    4300:	dd401117 	ldw	r21,68(sp)
    4304:	dd001017 	ldw	r20,64(sp)
    4308:	dcc00f17 	ldw	r19,60(sp)
    430c:	dc800e17 	ldw	r18,56(sp)
    4310:	dc400d17 	ldw	r17,52(sp)
    4314:	dc000c17 	ldw	r16,48(sp)
    4318:	dec01504 	addi	sp,sp,84
    431c:	f800283a 	ret
    4320:	008ff834 	movhi	r2,16352
    4324:	10bfffc4 	addi	r2,r2,-1
    4328:	1180db0e 	bge	r2,r6,4698 <__ieee754_acos+0x414>
    432c:	2801a216 	blt	r5,zero,49b8 <__ieee754_acos+0x734>
    4330:	010ffc34 	movhi	r4,16368
    4334:	d9000915 	stw	r4,36(sp)
    4338:	d9c00717 	ldw	r7,28(sp)
    433c:	d9400917 	ldw	r5,36(sp)
    4340:	d9800617 	ldw	r6,24(sp)
    4344:	0005883a 	mov	r2,zero
    4348:	0009883a 	mov	r4,zero
    434c:	d8800815 	stw	r2,32(sp)
    4350:	00098240 	call	9824 <__subdf3>
    4354:	0011883a 	mov	r8,zero
    4358:	024ff834 	movhi	r9,16352
    435c:	480f883a 	mov	r7,r9
    4360:	400d883a 	mov	r6,r8
    4364:	180b883a 	mov	r5,r3
    4368:	1009883a 	mov	r4,r2
    436c:	00099180 	call	9918 <__muldf3>
    4370:	1009883a 	mov	r4,r2
    4374:	180b883a 	mov	r5,r3
    4378:	1025883a 	mov	r18,r2
    437c:	1827883a 	mov	r19,r3
    4380:	0005dc00 	call	5dc0 <__ieee754_sqrt>
    4384:	180b883a 	mov	r5,r3
    4388:	0009883a 	mov	r4,zero
    438c:	000d883a 	mov	r6,zero
    4390:	180f883a 	mov	r7,r3
    4394:	182f883a 	mov	r23,r3
    4398:	d9000215 	stw	r4,8(sp)
    439c:	d8800415 	stw	r2,16(sp)
    43a0:	d8c00515 	stw	r3,20(sp)
    43a4:	d8c00315 	stw	r3,12(sp)
    43a8:	00099180 	call	9918 <__muldf3>
    43ac:	180f883a 	mov	r7,r3
    43b0:	9009883a 	mov	r4,r18
    43b4:	980b883a 	mov	r5,r19
    43b8:	100d883a 	mov	r6,r2
    43bc:	00098240 	call	9824 <__subdf3>
    43c0:	d9000417 	ldw	r4,16(sp)
    43c4:	d9400517 	ldw	r5,20(sp)
    43c8:	d9800217 	ldw	r6,8(sp)
    43cc:	b80f883a 	mov	r7,r23
    43d0:	1021883a 	mov	r16,r2
    43d4:	1823883a 	mov	r17,r3
    43d8:	00098a40 	call	98a4 <__adddf3>
    43dc:	180f883a 	mov	r7,r3
    43e0:	880b883a 	mov	r5,r17
    43e4:	8009883a 	mov	r4,r16
    43e8:	100d883a 	mov	r6,r2
    43ec:	0009cdc0 	call	9cdc <__divdf3>
    43f0:	02037fb4 	movhi	r8,3582
    43f4:	423dc244 	addi	r8,r8,-2295
    43f8:	024fc0b4 	movhi	r9,16130
    43fc:	4a4f7844 	addi	r9,r9,15841
    4400:	480f883a 	mov	r7,r9
    4404:	400d883a 	mov	r6,r8
    4408:	9009883a 	mov	r4,r18
    440c:	980b883a 	mov	r5,r19
    4410:	d8800a15 	stw	r2,40(sp)
    4414:	d8c00b15 	stw	r3,44(sp)
    4418:	00099180 	call	9918 <__muldf3>
    441c:	021d40b4 	movhi	r8,29954
    4420:	422ca204 	addi	r8,r8,-19832
    4424:	024fd2b4 	movhi	r9,16202
    4428:	4a7bf804 	addi	r9,r9,-4128
    442c:	480f883a 	mov	r7,r9
    4430:	400d883a 	mov	r6,r8
    4434:	180b883a 	mov	r5,r3
    4438:	1009883a 	mov	r4,r2
    443c:	00098a40 	call	98a4 <__adddf3>
    4440:	180f883a 	mov	r7,r3
    4444:	9009883a 	mov	r4,r18
    4448:	980b883a 	mov	r5,r19
    444c:	100d883a 	mov	r6,r2
    4450:	00099180 	call	9918 <__muldf3>
    4454:	022d5a74 	movhi	r8,46441
    4458:	4223cec4 	addi	r8,r8,-28869
    445c:	024fe974 	movhi	r9,16293
    4460:	4a608a04 	addi	r9,r9,-32216
    4464:	480f883a 	mov	r7,r9
    4468:	400d883a 	mov	r6,r8
    446c:	180b883a 	mov	r5,r3
    4470:	1009883a 	mov	r4,r2
    4474:	00098240 	call	9824 <__subdf3>
    4478:	180f883a 	mov	r7,r3
    447c:	9009883a 	mov	r4,r18
    4480:	980b883a 	mov	r5,r19
    4484:	100d883a 	mov	r6,r2
    4488:	00099180 	call	9918 <__muldf3>
    448c:	0203a234 	movhi	r8,3720
    4490:	42111544 	addi	r8,r8,17493
    4494:	024ff2b4 	movhi	r9,16330
    4498:	4a705544 	addi	r9,r9,-16043
    449c:	480f883a 	mov	r7,r9
    44a0:	400d883a 	mov	r6,r8
    44a4:	180b883a 	mov	r5,r3
    44a8:	1009883a 	mov	r4,r2
    44ac:	00098a40 	call	98a4 <__adddf3>
    44b0:	180f883a 	mov	r7,r3
    44b4:	9009883a 	mov	r4,r18
    44b8:	980b883a 	mov	r5,r19
    44bc:	100d883a 	mov	r6,r2
    44c0:	00099180 	call	9918 <__muldf3>
    44c4:	0200faf4 	movhi	r8,1003
    44c8:	421bdf44 	addi	r8,r8,28541
    44cc:	024ff574 	movhi	r9,16341
    44d0:	4a758484 	addi	r9,r9,-10734
    44d4:	480f883a 	mov	r7,r9
    44d8:	400d883a 	mov	r6,r8
    44dc:	180b883a 	mov	r5,r3
    44e0:	1009883a 	mov	r4,r2
    44e4:	00098240 	call	9824 <__subdf3>
    44e8:	180f883a 	mov	r7,r3
    44ec:	9009883a 	mov	r4,r18
    44f0:	980b883a 	mov	r5,r19
    44f4:	100d883a 	mov	r6,r2
    44f8:	00099180 	call	9918 <__muldf3>
    44fc:	02155574 	movhi	r8,21845
    4500:	42155544 	addi	r8,r8,21845
    4504:	024ff174 	movhi	r9,16325
    4508:	4a555544 	addi	r9,r9,21845
    450c:	480f883a 	mov	r7,r9
    4510:	400d883a 	mov	r6,r8
    4514:	180b883a 	mov	r5,r3
    4518:	1009883a 	mov	r4,r2
    451c:	00098a40 	call	98a4 <__adddf3>
    4520:	180f883a 	mov	r7,r3
    4524:	9009883a 	mov	r4,r18
    4528:	980b883a 	mov	r5,r19
    452c:	100d883a 	mov	r6,r2
    4530:	00099180 	call	9918 <__muldf3>
    4534:	022c4bf4 	movhi	r8,45359
    4538:	4224a084 	addi	r8,r8,-28030
    453c:	024fed34 	movhi	r9,16308
    4540:	4a6e3144 	addi	r9,r9,-18235
    4544:	480f883a 	mov	r7,r9
    4548:	400d883a 	mov	r6,r8
    454c:	9009883a 	mov	r4,r18
    4550:	980b883a 	mov	r5,r19
    4554:	1021883a 	mov	r16,r2
    4558:	1823883a 	mov	r17,r3
    455c:	00099180 	call	9918 <__muldf3>
    4560:	0206e374 	movhi	r8,7053
    4564:	42005644 	addi	r8,r8,345
    4568:	024ff9b4 	movhi	r9,16358
    456c:	4a419b04 	addi	r9,r9,1644
    4570:	480f883a 	mov	r7,r9
    4574:	400d883a 	mov	r6,r8
    4578:	180b883a 	mov	r5,r3
    457c:	1009883a 	mov	r4,r2
    4580:	00098240 	call	9824 <__subdf3>
    4584:	180f883a 	mov	r7,r3
    4588:	9009883a 	mov	r4,r18
    458c:	980b883a 	mov	r5,r19
    4590:	100d883a 	mov	r6,r2
    4594:	00099180 	call	9918 <__muldf3>
    4598:	022716b4 	movhi	r8,40026
    459c:	4222b204 	addi	r8,r8,-30008
    45a0:	02500034 	movhi	r9,16384
    45a4:	4a4ab944 	addi	r9,r9,10981
    45a8:	480f883a 	mov	r7,r9
    45ac:	400d883a 	mov	r6,r8
    45b0:	180b883a 	mov	r5,r3
    45b4:	1009883a 	mov	r4,r2
    45b8:	00098a40 	call	98a4 <__adddf3>
    45bc:	180f883a 	mov	r7,r3
    45c0:	9009883a 	mov	r4,r18
    45c4:	980b883a 	mov	r5,r19
    45c8:	100d883a 	mov	r6,r2
    45cc:	00099180 	call	9918 <__muldf3>
    45d0:	025000f4 	movhi	r9,16387
    45d4:	4a4e89c4 	addi	r9,r9,14887
    45d8:	020722b4 	movhi	r8,7306
    45dc:	420b52c4 	addi	r8,r8,11595
    45e0:	480f883a 	mov	r7,r9
    45e4:	400d883a 	mov	r6,r8
    45e8:	180b883a 	mov	r5,r3
    45ec:	1009883a 	mov	r4,r2
    45f0:	00098240 	call	9824 <__subdf3>
    45f4:	180f883a 	mov	r7,r3
    45f8:	9009883a 	mov	r4,r18
    45fc:	980b883a 	mov	r5,r19
    4600:	100d883a 	mov	r6,r2
    4604:	00099180 	call	9918 <__muldf3>
    4608:	1011883a 	mov	r8,r2
    460c:	d8800917 	ldw	r2,36(sp)
    4610:	4009883a 	mov	r4,r8
    4614:	000d883a 	mov	r6,zero
    4618:	100f883a 	mov	r7,r2
    461c:	180b883a 	mov	r5,r3
    4620:	00098a40 	call	98a4 <__adddf3>
    4624:	180f883a 	mov	r7,r3
    4628:	880b883a 	mov	r5,r17
    462c:	8009883a 	mov	r4,r16
    4630:	100d883a 	mov	r6,r2
    4634:	0009cdc0 	call	9cdc <__divdf3>
    4638:	d9400517 	ldw	r5,20(sp)
    463c:	d9000417 	ldw	r4,16(sp)
    4640:	180f883a 	mov	r7,r3
    4644:	100d883a 	mov	r6,r2
    4648:	00099180 	call	9918 <__muldf3>
    464c:	d9400b17 	ldw	r5,44(sp)
    4650:	d9000a17 	ldw	r4,40(sp)
    4654:	180f883a 	mov	r7,r3
    4658:	100d883a 	mov	r6,r2
    465c:	00098a40 	call	98a4 <__adddf3>
    4660:	d9000217 	ldw	r4,8(sp)
    4664:	b80b883a 	mov	r5,r23
    4668:	180f883a 	mov	r7,r3
    466c:	100d883a 	mov	r6,r2
    4670:	00098a40 	call	98a4 <__adddf3>
    4674:	1011883a 	mov	r8,r2
    4678:	180f883a 	mov	r7,r3
    467c:	1009883a 	mov	r4,r2
    4680:	180b883a 	mov	r5,r3
    4684:	400d883a 	mov	r6,r8
    4688:	00098a40 	call	98a4 <__adddf3>
    468c:	100d883a 	mov	r6,r2
    4690:	180f883a 	mov	r7,r3
    4694:	003f1506 	br	42ec <__ieee754_acos+0x68>
    4698:	008f1834 	movhi	r2,15456
    469c:	1180c10e 	bge	r2,r6,49a4 <__ieee754_acos+0x720>
    46a0:	d9000617 	ldw	r4,24(sp)
    46a4:	d9c00717 	ldw	r7,28(sp)
    46a8:	200d883a 	mov	r6,r4
    46ac:	00099180 	call	9918 <__muldf3>
    46b0:	1021883a 	mov	r16,r2
    46b4:	1823883a 	mov	r17,r3
    46b8:	00837fb4 	movhi	r2,3582
    46bc:	10bdc244 	addi	r2,r2,-2295
    46c0:	00cfc0b4 	movhi	r3,16130
    46c4:	18cf7844 	addi	r3,r3,15841
    46c8:	180f883a 	mov	r7,r3
    46cc:	8009883a 	mov	r4,r16
    46d0:	880b883a 	mov	r5,r17
    46d4:	100d883a 	mov	r6,r2
    46d8:	00099180 	call	9918 <__muldf3>
    46dc:	021d40b4 	movhi	r8,29954
    46e0:	422ca204 	addi	r8,r8,-19832
    46e4:	024fd2b4 	movhi	r9,16202
    46e8:	4a7bf804 	addi	r9,r9,-4128
    46ec:	480f883a 	mov	r7,r9
    46f0:	400d883a 	mov	r6,r8
    46f4:	180b883a 	mov	r5,r3
    46f8:	1009883a 	mov	r4,r2
    46fc:	00098a40 	call	98a4 <__adddf3>
    4700:	180f883a 	mov	r7,r3
    4704:	8009883a 	mov	r4,r16
    4708:	880b883a 	mov	r5,r17
    470c:	100d883a 	mov	r6,r2
    4710:	00099180 	call	9918 <__muldf3>
    4714:	022d5a74 	movhi	r8,46441
    4718:	4223cec4 	addi	r8,r8,-28869
    471c:	024fe974 	movhi	r9,16293
    4720:	4a608a04 	addi	r9,r9,-32216
    4724:	480f883a 	mov	r7,r9
    4728:	400d883a 	mov	r6,r8
    472c:	180b883a 	mov	r5,r3
    4730:	1009883a 	mov	r4,r2
    4734:	00098240 	call	9824 <__subdf3>
    4738:	180f883a 	mov	r7,r3
    473c:	8009883a 	mov	r4,r16
    4740:	880b883a 	mov	r5,r17
    4744:	100d883a 	mov	r6,r2
    4748:	00099180 	call	9918 <__muldf3>
    474c:	0203a234 	movhi	r8,3720
    4750:	42111544 	addi	r8,r8,17493
    4754:	024ff2b4 	movhi	r9,16330
    4758:	4a705544 	addi	r9,r9,-16043
    475c:	480f883a 	mov	r7,r9
    4760:	400d883a 	mov	r6,r8
    4764:	180b883a 	mov	r5,r3
    4768:	1009883a 	mov	r4,r2
    476c:	00098a40 	call	98a4 <__adddf3>
    4770:	180f883a 	mov	r7,r3
    4774:	8009883a 	mov	r4,r16
    4778:	880b883a 	mov	r5,r17
    477c:	100d883a 	mov	r6,r2
    4780:	00099180 	call	9918 <__muldf3>
    4784:	0200faf4 	movhi	r8,1003
    4788:	421bdf44 	addi	r8,r8,28541
    478c:	024ff574 	movhi	r9,16341
    4790:	4a758484 	addi	r9,r9,-10734
    4794:	480f883a 	mov	r7,r9
    4798:	400d883a 	mov	r6,r8
    479c:	180b883a 	mov	r5,r3
    47a0:	1009883a 	mov	r4,r2
    47a4:	00098240 	call	9824 <__subdf3>
    47a8:	180f883a 	mov	r7,r3
    47ac:	8009883a 	mov	r4,r16
    47b0:	880b883a 	mov	r5,r17
    47b4:	100d883a 	mov	r6,r2
    47b8:	00099180 	call	9918 <__muldf3>
    47bc:	02155574 	movhi	r8,21845
    47c0:	42155544 	addi	r8,r8,21845
    47c4:	024ff174 	movhi	r9,16325
    47c8:	4a555544 	addi	r9,r9,21845
    47cc:	480f883a 	mov	r7,r9
    47d0:	400d883a 	mov	r6,r8
    47d4:	180b883a 	mov	r5,r3
    47d8:	1009883a 	mov	r4,r2
    47dc:	00098a40 	call	98a4 <__adddf3>
    47e0:	180f883a 	mov	r7,r3
    47e4:	8009883a 	mov	r4,r16
    47e8:	880b883a 	mov	r5,r17
    47ec:	100d883a 	mov	r6,r2
    47f0:	00099180 	call	9918 <__muldf3>
    47f4:	022c4bf4 	movhi	r8,45359
    47f8:	4224a084 	addi	r8,r8,-28030
    47fc:	024fed34 	movhi	r9,16308
    4800:	4a6e3144 	addi	r9,r9,-18235
    4804:	480f883a 	mov	r7,r9
    4808:	400d883a 	mov	r6,r8
    480c:	8009883a 	mov	r4,r16
    4810:	880b883a 	mov	r5,r17
    4814:	1029883a 	mov	r20,r2
    4818:	182b883a 	mov	r21,r3
    481c:	00099180 	call	9918 <__muldf3>
    4820:	0206e374 	movhi	r8,7053
    4824:	42005644 	addi	r8,r8,345
    4828:	024ff9b4 	movhi	r9,16358
    482c:	4a419b04 	addi	r9,r9,1644
    4830:	480f883a 	mov	r7,r9
    4834:	400d883a 	mov	r6,r8
    4838:	180b883a 	mov	r5,r3
    483c:	1009883a 	mov	r4,r2
    4840:	00098240 	call	9824 <__subdf3>
    4844:	180f883a 	mov	r7,r3
    4848:	8009883a 	mov	r4,r16
    484c:	880b883a 	mov	r5,r17
    4850:	100d883a 	mov	r6,r2
    4854:	00099180 	call	9918 <__muldf3>
    4858:	022716b4 	movhi	r8,40026
    485c:	4222b204 	addi	r8,r8,-30008
    4860:	02500034 	movhi	r9,16384
    4864:	4a4ab944 	addi	r9,r9,10981
    4868:	480f883a 	mov	r7,r9
    486c:	400d883a 	mov	r6,r8
    4870:	180b883a 	mov	r5,r3
    4874:	1009883a 	mov	r4,r2
    4878:	00098a40 	call	98a4 <__adddf3>
    487c:	180f883a 	mov	r7,r3
    4880:	8009883a 	mov	r4,r16
    4884:	880b883a 	mov	r5,r17
    4888:	100d883a 	mov	r6,r2
    488c:	00099180 	call	9918 <__muldf3>
    4890:	020722b4 	movhi	r8,7306
    4894:	420b52c4 	addi	r8,r8,11595
    4898:	025000f4 	movhi	r9,16387
    489c:	4a4e89c4 	addi	r9,r9,14887
    48a0:	480f883a 	mov	r7,r9
    48a4:	400d883a 	mov	r6,r8
    48a8:	180b883a 	mov	r5,r3
    48ac:	1009883a 	mov	r4,r2
    48b0:	00098240 	call	9824 <__subdf3>
    48b4:	180f883a 	mov	r7,r3
    48b8:	8009883a 	mov	r4,r16
    48bc:	880b883a 	mov	r5,r17
    48c0:	100d883a 	mov	r6,r2
    48c4:	00099180 	call	9918 <__muldf3>
    48c8:	0011883a 	mov	r8,zero
    48cc:	024ffc34 	movhi	r9,16368
    48d0:	480f883a 	mov	r7,r9
    48d4:	400d883a 	mov	r6,r8
    48d8:	180b883a 	mov	r5,r3
    48dc:	1009883a 	mov	r4,r2
    48e0:	00098a40 	call	98a4 <__adddf3>
    48e4:	180f883a 	mov	r7,r3
    48e8:	a80b883a 	mov	r5,r21
    48ec:	a009883a 	mov	r4,r20
    48f0:	100d883a 	mov	r6,r2
    48f4:	0009cdc0 	call	9cdc <__divdf3>
    48f8:	d9000617 	ldw	r4,24(sp)
    48fc:	d9400717 	ldw	r5,28(sp)
    4900:	180f883a 	mov	r7,r3
    4904:	100d883a 	mov	r6,r2
    4908:	00099180 	call	9918 <__muldf3>
    490c:	020cc534 	movhi	r8,13076
    4910:	421701c4 	addi	r8,r8,23559
    4914:	024f24b4 	movhi	r9,15506
    4918:	4a698984 	addi	r9,r9,-23002
    491c:	480b883a 	mov	r5,r9
    4920:	4009883a 	mov	r4,r8
    4924:	180f883a 	mov	r7,r3
    4928:	100d883a 	mov	r6,r2
    492c:	00098240 	call	9824 <__subdf3>
    4930:	d9400717 	ldw	r5,28(sp)
    4934:	d9000617 	ldw	r4,24(sp)
    4938:	180f883a 	mov	r7,r3
    493c:	100d883a 	mov	r6,r2
    4940:	00098240 	call	9824 <__subdf3>
    4944:	02151134 	movhi	r8,21572
    4948:	420b4604 	addi	r8,r8,11544
    494c:	024ffe74 	movhi	r9,16377
    4950:	4a487ec4 	addi	r9,r9,8699
    4954:	180f883a 	mov	r7,r3
    4958:	100d883a 	mov	r6,r2
    495c:	480b883a 	mov	r5,r9
    4960:	4009883a 	mov	r4,r8
    4964:	00098240 	call	9824 <__subdf3>
    4968:	100d883a 	mov	r6,r2
    496c:	180f883a 	mov	r7,r3
    4970:	003e5e06 	br	42ec <__ieee754_acos+0x68>
    4974:	d9000617 	ldw	r4,24(sp)
    4978:	d9c00717 	ldw	r7,28(sp)
    497c:	200d883a 	mov	r6,r4
    4980:	00098240 	call	9824 <__subdf3>
    4984:	100d883a 	mov	r6,r2
    4988:	180f883a 	mov	r7,r3
    498c:	1009883a 	mov	r4,r2
    4990:	180b883a 	mov	r5,r3
    4994:	0009cdc0 	call	9cdc <__divdf3>
    4998:	100d883a 	mov	r6,r2
    499c:	180f883a 	mov	r7,r3
    49a0:	003e5206 	br	42ec <__ieee754_acos+0x68>
    49a4:	01951134 	movhi	r6,21572
    49a8:	318b4604 	addi	r6,r6,11544
    49ac:	01cffe74 	movhi	r7,16377
    49b0:	39c87ec4 	addi	r7,r7,8699
    49b4:	003e4d06 	br	42ec <__ieee754_acos+0x68>
    49b8:	d9000617 	ldw	r4,24(sp)
    49bc:	05cffc34 	movhi	r23,16368
    49c0:	002d883a 	mov	r22,zero
    49c4:	b00d883a 	mov	r6,r22
    49c8:	b80f883a 	mov	r7,r23
    49cc:	00098a40 	call	98a4 <__adddf3>
    49d0:	0011883a 	mov	r8,zero
    49d4:	024ff834 	movhi	r9,16352
    49d8:	480f883a 	mov	r7,r9
    49dc:	400d883a 	mov	r6,r8
    49e0:	180b883a 	mov	r5,r3
    49e4:	1009883a 	mov	r4,r2
    49e8:	00099180 	call	9918 <__muldf3>
    49ec:	1009883a 	mov	r4,r2
    49f0:	180b883a 	mov	r5,r3
    49f4:	1021883a 	mov	r16,r2
    49f8:	1823883a 	mov	r17,r3
    49fc:	0005dc00 	call	5dc0 <__ieee754_sqrt>
    4a00:	02037fb4 	movhi	r8,3582
    4a04:	423dc244 	addi	r8,r8,-2295
    4a08:	024fc0b4 	movhi	r9,16130
    4a0c:	4a4f7844 	addi	r9,r9,15841
    4a10:	480f883a 	mov	r7,r9
    4a14:	400d883a 	mov	r6,r8
    4a18:	8009883a 	mov	r4,r16
    4a1c:	880b883a 	mov	r5,r17
    4a20:	d8800015 	stw	r2,0(sp)
    4a24:	d8c00115 	stw	r3,4(sp)
    4a28:	00099180 	call	9918 <__muldf3>
    4a2c:	021d40b4 	movhi	r8,29954
    4a30:	422ca204 	addi	r8,r8,-19832
    4a34:	024fd2b4 	movhi	r9,16202
    4a38:	4a7bf804 	addi	r9,r9,-4128
    4a3c:	480f883a 	mov	r7,r9
    4a40:	400d883a 	mov	r6,r8
    4a44:	180b883a 	mov	r5,r3
    4a48:	1009883a 	mov	r4,r2
    4a4c:	00098a40 	call	98a4 <__adddf3>
    4a50:	180f883a 	mov	r7,r3
    4a54:	8009883a 	mov	r4,r16
    4a58:	880b883a 	mov	r5,r17
    4a5c:	100d883a 	mov	r6,r2
    4a60:	00099180 	call	9918 <__muldf3>
    4a64:	022d5a74 	movhi	r8,46441
    4a68:	4223cec4 	addi	r8,r8,-28869
    4a6c:	024fe974 	movhi	r9,16293
    4a70:	4a608a04 	addi	r9,r9,-32216
    4a74:	480f883a 	mov	r7,r9
    4a78:	400d883a 	mov	r6,r8
    4a7c:	180b883a 	mov	r5,r3
    4a80:	1009883a 	mov	r4,r2
    4a84:	00098240 	call	9824 <__subdf3>
    4a88:	180f883a 	mov	r7,r3
    4a8c:	8009883a 	mov	r4,r16
    4a90:	880b883a 	mov	r5,r17
    4a94:	100d883a 	mov	r6,r2
    4a98:	00099180 	call	9918 <__muldf3>
    4a9c:	0203a234 	movhi	r8,3720
    4aa0:	42111544 	addi	r8,r8,17493
    4aa4:	024ff2b4 	movhi	r9,16330
    4aa8:	4a705544 	addi	r9,r9,-16043
    4aac:	480f883a 	mov	r7,r9
    4ab0:	400d883a 	mov	r6,r8
    4ab4:	180b883a 	mov	r5,r3
    4ab8:	1009883a 	mov	r4,r2
    4abc:	00098a40 	call	98a4 <__adddf3>
    4ac0:	180f883a 	mov	r7,r3
    4ac4:	8009883a 	mov	r4,r16
    4ac8:	880b883a 	mov	r5,r17
    4acc:	100d883a 	mov	r6,r2
    4ad0:	00099180 	call	9918 <__muldf3>
    4ad4:	0200faf4 	movhi	r8,1003
    4ad8:	421bdf44 	addi	r8,r8,28541
    4adc:	024ff574 	movhi	r9,16341
    4ae0:	4a758484 	addi	r9,r9,-10734
    4ae4:	480f883a 	mov	r7,r9
    4ae8:	400d883a 	mov	r6,r8
    4aec:	180b883a 	mov	r5,r3
    4af0:	1009883a 	mov	r4,r2
    4af4:	00098240 	call	9824 <__subdf3>
    4af8:	180f883a 	mov	r7,r3
    4afc:	8009883a 	mov	r4,r16
    4b00:	880b883a 	mov	r5,r17
    4b04:	100d883a 	mov	r6,r2
    4b08:	00099180 	call	9918 <__muldf3>
    4b0c:	02155574 	movhi	r8,21845
    4b10:	42155544 	addi	r8,r8,21845
    4b14:	024ff174 	movhi	r9,16325
    4b18:	4a555544 	addi	r9,r9,21845
    4b1c:	480f883a 	mov	r7,r9
    4b20:	400d883a 	mov	r6,r8
    4b24:	180b883a 	mov	r5,r3
    4b28:	1009883a 	mov	r4,r2
    4b2c:	00098a40 	call	98a4 <__adddf3>
    4b30:	180f883a 	mov	r7,r3
    4b34:	8009883a 	mov	r4,r16
    4b38:	880b883a 	mov	r5,r17
    4b3c:	100d883a 	mov	r6,r2
    4b40:	00099180 	call	9918 <__muldf3>
    4b44:	022c4bf4 	movhi	r8,45359
    4b48:	4224a084 	addi	r8,r8,-28030
    4b4c:	024fed34 	movhi	r9,16308
    4b50:	4a6e3144 	addi	r9,r9,-18235
    4b54:	480f883a 	mov	r7,r9
    4b58:	400d883a 	mov	r6,r8
    4b5c:	8009883a 	mov	r4,r16
    4b60:	880b883a 	mov	r5,r17
    4b64:	1029883a 	mov	r20,r2
    4b68:	182b883a 	mov	r21,r3
    4b6c:	00099180 	call	9918 <__muldf3>
    4b70:	0206e374 	movhi	r8,7053
    4b74:	42005644 	addi	r8,r8,345
    4b78:	024ff9b4 	movhi	r9,16358
    4b7c:	4a419b04 	addi	r9,r9,1644
    4b80:	480f883a 	mov	r7,r9
    4b84:	400d883a 	mov	r6,r8
    4b88:	180b883a 	mov	r5,r3
    4b8c:	1009883a 	mov	r4,r2
    4b90:	00098240 	call	9824 <__subdf3>
    4b94:	180f883a 	mov	r7,r3
    4b98:	8009883a 	mov	r4,r16
    4b9c:	880b883a 	mov	r5,r17
    4ba0:	100d883a 	mov	r6,r2
    4ba4:	00099180 	call	9918 <__muldf3>
    4ba8:	022716b4 	movhi	r8,40026
    4bac:	4222b204 	addi	r8,r8,-30008
    4bb0:	02500034 	movhi	r9,16384
    4bb4:	4a4ab944 	addi	r9,r9,10981
    4bb8:	480f883a 	mov	r7,r9
    4bbc:	400d883a 	mov	r6,r8
    4bc0:	180b883a 	mov	r5,r3
    4bc4:	1009883a 	mov	r4,r2
    4bc8:	00098a40 	call	98a4 <__adddf3>
    4bcc:	180f883a 	mov	r7,r3
    4bd0:	8009883a 	mov	r4,r16
    4bd4:	880b883a 	mov	r5,r17
    4bd8:	100d883a 	mov	r6,r2
    4bdc:	00099180 	call	9918 <__muldf3>
    4be0:	020722b4 	movhi	r8,7306
    4be4:	420b52c4 	addi	r8,r8,11595
    4be8:	025000f4 	movhi	r9,16387
    4bec:	4a4e89c4 	addi	r9,r9,14887
    4bf0:	480f883a 	mov	r7,r9
    4bf4:	400d883a 	mov	r6,r8
    4bf8:	180b883a 	mov	r5,r3
    4bfc:	1009883a 	mov	r4,r2
    4c00:	00098240 	call	9824 <__subdf3>
    4c04:	180f883a 	mov	r7,r3
    4c08:	8009883a 	mov	r4,r16
    4c0c:	880b883a 	mov	r5,r17
    4c10:	100d883a 	mov	r6,r2
    4c14:	00099180 	call	9918 <__muldf3>
    4c18:	180b883a 	mov	r5,r3
    4c1c:	000d883a 	mov	r6,zero
    4c20:	b80f883a 	mov	r7,r23
    4c24:	1009883a 	mov	r4,r2
    4c28:	00098a40 	call	98a4 <__adddf3>
    4c2c:	180f883a 	mov	r7,r3
    4c30:	a80b883a 	mov	r5,r21
    4c34:	a009883a 	mov	r4,r20
    4c38:	100d883a 	mov	r6,r2
    4c3c:	0009cdc0 	call	9cdc <__divdf3>
    4c40:	d9000017 	ldw	r4,0(sp)
    4c44:	d9400117 	ldw	r5,4(sp)
    4c48:	180f883a 	mov	r7,r3
    4c4c:	100d883a 	mov	r6,r2
    4c50:	00099180 	call	9918 <__muldf3>
    4c54:	020cc534 	movhi	r8,13076
    4c58:	421701c4 	addi	r8,r8,23559
    4c5c:	024f24b4 	movhi	r9,15506
    4c60:	4a698984 	addi	r9,r9,-23002
    4c64:	480f883a 	mov	r7,r9
    4c68:	400d883a 	mov	r6,r8
    4c6c:	180b883a 	mov	r5,r3
    4c70:	1009883a 	mov	r4,r2
    4c74:	00098240 	call	9824 <__subdf3>
    4c78:	d9400117 	ldw	r5,4(sp)
    4c7c:	d9000017 	ldw	r4,0(sp)
    4c80:	180f883a 	mov	r7,r3
    4c84:	100d883a 	mov	r6,r2
    4c88:	00098a40 	call	98a4 <__adddf3>
    4c8c:	0011883a 	mov	r8,zero
    4c90:	02700034 	movhi	r9,49152
    4c94:	480f883a 	mov	r7,r9
    4c98:	180b883a 	mov	r5,r3
    4c9c:	1009883a 	mov	r4,r2
    4ca0:	400d883a 	mov	r6,r8
    4ca4:	00099180 	call	9918 <__muldf3>
    4ca8:	02500274 	movhi	r9,16393
    4cac:	4a487ec4 	addi	r9,r9,8699
    4cb0:	02151134 	movhi	r8,21572
    4cb4:	420b4604 	addi	r8,r8,11544
    4cb8:	180b883a 	mov	r5,r3
    4cbc:	480f883a 	mov	r7,r9
    4cc0:	1009883a 	mov	r4,r2
    4cc4:	003e6f06 	br	4684 <__ieee754_acos+0x400>
    4cc8:	01951134 	movhi	r6,21572
    4ccc:	318b4604 	addi	r6,r6,11544
    4cd0:	01d00274 	movhi	r7,16393
    4cd4:	39c87ec4 	addi	r7,r7,8699
    4cd8:	003d8406 	br	42ec <__ieee754_acos+0x68>

00004cdc <__ieee754_asin>:
    4cdc:	defff004 	addi	sp,sp,-64
    4ce0:	00a00034 	movhi	r2,32768
    4ce4:	10bfffc4 	addi	r2,r2,-1
    4ce8:	dd000a15 	stw	r20,40(sp)
    4cec:	28a8703a 	and	r20,r5,r2
    4cf0:	008ffc34 	movhi	r2,16368
    4cf4:	10bfffc4 	addi	r2,r2,-1
    4cf8:	df000e15 	stw	fp,56(sp)
    4cfc:	ddc00d15 	stw	r23,52(sp)
    4d00:	dd800c15 	stw	r22,48(sp)
    4d04:	dfc00f15 	stw	ra,60(sp)
    4d08:	dd400b15 	stw	r21,44(sp)
    4d0c:	dcc00915 	stw	r19,36(sp)
    4d10:	dc800815 	stw	r18,32(sp)
    4d14:	dc400715 	stw	r17,28(sp)
    4d18:	dc000615 	stw	r16,24(sp)
    4d1c:	202d883a 	mov	r22,r4
    4d20:	282f883a 	mov	r23,r5
    4d24:	2839883a 	mov	fp,r5
    4d28:	15002d0e 	bge	r2,r20,4de0 <__ieee754_asin+0x104>
    4d2c:	01300434 	movhi	r4,49168
    4d30:	a109883a 	add	r4,r20,r4
    4d34:	2588b03a 	or	r4,r4,r22
    4d38:	2000ce1e 	bne	r4,zero,5074 <__ieee754_asin+0x398>
    4d3c:	00951134 	movhi	r2,21572
    4d40:	108b4604 	addi	r2,r2,11544
    4d44:	00cffe74 	movhi	r3,16377
    4d48:	18c87ec4 	addi	r3,r3,8699
    4d4c:	180f883a 	mov	r7,r3
    4d50:	b009883a 	mov	r4,r22
    4d54:	100d883a 	mov	r6,r2
    4d58:	00099180 	call	9918 <__muldf3>
    4d5c:	020cc534 	movhi	r8,13076
    4d60:	421701c4 	addi	r8,r8,23559
    4d64:	024f24b4 	movhi	r9,15506
    4d68:	4a698984 	addi	r9,r9,-23002
    4d6c:	b80b883a 	mov	r5,r23
    4d70:	480f883a 	mov	r7,r9
    4d74:	b009883a 	mov	r4,r22
    4d78:	400d883a 	mov	r6,r8
    4d7c:	1021883a 	mov	r16,r2
    4d80:	1823883a 	mov	r17,r3
    4d84:	00099180 	call	9918 <__muldf3>
    4d88:	1011883a 	mov	r8,r2
    4d8c:	880b883a 	mov	r5,r17
    4d90:	180f883a 	mov	r7,r3
    4d94:	8009883a 	mov	r4,r16
    4d98:	400d883a 	mov	r6,r8
    4d9c:	00098a40 	call	98a4 <__adddf3>
    4da0:	102d883a 	mov	r22,r2
    4da4:	182f883a 	mov	r23,r3
    4da8:	b005883a 	mov	r2,r22
    4dac:	b807883a 	mov	r3,r23
    4db0:	dfc00f17 	ldw	ra,60(sp)
    4db4:	df000e17 	ldw	fp,56(sp)
    4db8:	ddc00d17 	ldw	r23,52(sp)
    4dbc:	dd800c17 	ldw	r22,48(sp)
    4dc0:	dd400b17 	ldw	r21,44(sp)
    4dc4:	dd000a17 	ldw	r20,40(sp)
    4dc8:	dcc00917 	ldw	r19,36(sp)
    4dcc:	dc800817 	ldw	r18,32(sp)
    4dd0:	dc400717 	ldw	r17,28(sp)
    4dd4:	dc000617 	ldw	r16,24(sp)
    4dd8:	dec01004 	addi	sp,sp,64
    4ddc:	f800283a 	ret
    4de0:	008ff834 	movhi	r2,16352
    4de4:	10bfffc4 	addi	r2,r2,-1
    4de8:	1500bd16 	blt	r2,r20,50e0 <__ieee754_asin+0x404>
    4dec:	008f9034 	movhi	r2,15936
    4df0:	10bfffc4 	addi	r2,r2,-1
    4df4:	1500ab0e 	bge	r2,r20,50a4 <__ieee754_asin+0x3c8>
    4df8:	280f883a 	mov	r7,r5
    4dfc:	b00d883a 	mov	r6,r22
    4e00:	00099180 	call	9918 <__muldf3>
    4e04:	1021883a 	mov	r16,r2
    4e08:	1823883a 	mov	r17,r3
    4e0c:	00837fb4 	movhi	r2,3582
    4e10:	10bdc244 	addi	r2,r2,-2295
    4e14:	00cfc0b4 	movhi	r3,16130
    4e18:	18cf7844 	addi	r3,r3,15841
    4e1c:	180f883a 	mov	r7,r3
    4e20:	8009883a 	mov	r4,r16
    4e24:	880b883a 	mov	r5,r17
    4e28:	100d883a 	mov	r6,r2
    4e2c:	00099180 	call	9918 <__muldf3>
    4e30:	021d40b4 	movhi	r8,29954
    4e34:	422ca204 	addi	r8,r8,-19832
    4e38:	024fd2b4 	movhi	r9,16202
    4e3c:	4a7bf804 	addi	r9,r9,-4128
    4e40:	480f883a 	mov	r7,r9
    4e44:	400d883a 	mov	r6,r8
    4e48:	180b883a 	mov	r5,r3
    4e4c:	1009883a 	mov	r4,r2
    4e50:	00098a40 	call	98a4 <__adddf3>
    4e54:	180f883a 	mov	r7,r3
    4e58:	8009883a 	mov	r4,r16
    4e5c:	880b883a 	mov	r5,r17
    4e60:	100d883a 	mov	r6,r2
    4e64:	00099180 	call	9918 <__muldf3>
    4e68:	022d5a74 	movhi	r8,46441
    4e6c:	4223cec4 	addi	r8,r8,-28869
    4e70:	024fe974 	movhi	r9,16293
    4e74:	4a608a04 	addi	r9,r9,-32216
    4e78:	480f883a 	mov	r7,r9
    4e7c:	400d883a 	mov	r6,r8
    4e80:	180b883a 	mov	r5,r3
    4e84:	1009883a 	mov	r4,r2
    4e88:	00098240 	call	9824 <__subdf3>
    4e8c:	180f883a 	mov	r7,r3
    4e90:	8009883a 	mov	r4,r16
    4e94:	880b883a 	mov	r5,r17
    4e98:	100d883a 	mov	r6,r2
    4e9c:	00099180 	call	9918 <__muldf3>
    4ea0:	0203a234 	movhi	r8,3720
    4ea4:	42111544 	addi	r8,r8,17493
    4ea8:	024ff2b4 	movhi	r9,16330
    4eac:	4a705544 	addi	r9,r9,-16043
    4eb0:	480f883a 	mov	r7,r9
    4eb4:	400d883a 	mov	r6,r8
    4eb8:	180b883a 	mov	r5,r3
    4ebc:	1009883a 	mov	r4,r2
    4ec0:	00098a40 	call	98a4 <__adddf3>
    4ec4:	180f883a 	mov	r7,r3
    4ec8:	8009883a 	mov	r4,r16
    4ecc:	880b883a 	mov	r5,r17
    4ed0:	100d883a 	mov	r6,r2
    4ed4:	00099180 	call	9918 <__muldf3>
    4ed8:	0200faf4 	movhi	r8,1003
    4edc:	421bdf44 	addi	r8,r8,28541
    4ee0:	024ff574 	movhi	r9,16341
    4ee4:	4a758484 	addi	r9,r9,-10734
    4ee8:	480f883a 	mov	r7,r9
    4eec:	400d883a 	mov	r6,r8
    4ef0:	180b883a 	mov	r5,r3
    4ef4:	1009883a 	mov	r4,r2
    4ef8:	00098240 	call	9824 <__subdf3>
    4efc:	180f883a 	mov	r7,r3
    4f00:	8009883a 	mov	r4,r16
    4f04:	880b883a 	mov	r5,r17
    4f08:	100d883a 	mov	r6,r2
    4f0c:	00099180 	call	9918 <__muldf3>
    4f10:	02155574 	movhi	r8,21845
    4f14:	42155544 	addi	r8,r8,21845
    4f18:	024ff174 	movhi	r9,16325
    4f1c:	4a555544 	addi	r9,r9,21845
    4f20:	480f883a 	mov	r7,r9
    4f24:	400d883a 	mov	r6,r8
    4f28:	180b883a 	mov	r5,r3
    4f2c:	1009883a 	mov	r4,r2
    4f30:	00098a40 	call	98a4 <__adddf3>
    4f34:	180f883a 	mov	r7,r3
    4f38:	8009883a 	mov	r4,r16
    4f3c:	880b883a 	mov	r5,r17
    4f40:	100d883a 	mov	r6,r2
    4f44:	00099180 	call	9918 <__muldf3>
    4f48:	022c4bf4 	movhi	r8,45359
    4f4c:	4224a084 	addi	r8,r8,-28030
    4f50:	024fed34 	movhi	r9,16308
    4f54:	4a6e3144 	addi	r9,r9,-18235
    4f58:	480f883a 	mov	r7,r9
    4f5c:	400d883a 	mov	r6,r8
    4f60:	8009883a 	mov	r4,r16
    4f64:	880b883a 	mov	r5,r17
    4f68:	1029883a 	mov	r20,r2
    4f6c:	182b883a 	mov	r21,r3
    4f70:	00099180 	call	9918 <__muldf3>
    4f74:	0206e374 	movhi	r8,7053
    4f78:	42005644 	addi	r8,r8,345
    4f7c:	024ff9b4 	movhi	r9,16358
    4f80:	4a419b04 	addi	r9,r9,1644
    4f84:	480f883a 	mov	r7,r9
    4f88:	400d883a 	mov	r6,r8
    4f8c:	180b883a 	mov	r5,r3
    4f90:	1009883a 	mov	r4,r2
    4f94:	00098240 	call	9824 <__subdf3>
    4f98:	180f883a 	mov	r7,r3
    4f9c:	8009883a 	mov	r4,r16
    4fa0:	880b883a 	mov	r5,r17
    4fa4:	100d883a 	mov	r6,r2
    4fa8:	00099180 	call	9918 <__muldf3>
    4fac:	022716b4 	movhi	r8,40026
    4fb0:	4222b204 	addi	r8,r8,-30008
    4fb4:	02500034 	movhi	r9,16384
    4fb8:	4a4ab944 	addi	r9,r9,10981
    4fbc:	480f883a 	mov	r7,r9
    4fc0:	400d883a 	mov	r6,r8
    4fc4:	180b883a 	mov	r5,r3
    4fc8:	1009883a 	mov	r4,r2
    4fcc:	00098a40 	call	98a4 <__adddf3>
    4fd0:	180f883a 	mov	r7,r3
    4fd4:	8009883a 	mov	r4,r16
    4fd8:	880b883a 	mov	r5,r17
    4fdc:	100d883a 	mov	r6,r2
    4fe0:	00099180 	call	9918 <__muldf3>
    4fe4:	020722b4 	movhi	r8,7306
    4fe8:	420b52c4 	addi	r8,r8,11595
    4fec:	025000f4 	movhi	r9,16387
    4ff0:	4a4e89c4 	addi	r9,r9,14887
    4ff4:	480f883a 	mov	r7,r9
    4ff8:	400d883a 	mov	r6,r8
    4ffc:	180b883a 	mov	r5,r3
    5000:	1009883a 	mov	r4,r2
    5004:	00098240 	call	9824 <__subdf3>
    5008:	180f883a 	mov	r7,r3
    500c:	8009883a 	mov	r4,r16
    5010:	880b883a 	mov	r5,r17
    5014:	100d883a 	mov	r6,r2
    5018:	00099180 	call	9918 <__muldf3>
    501c:	0011883a 	mov	r8,zero
    5020:	024ffc34 	movhi	r9,16368
    5024:	400d883a 	mov	r6,r8
    5028:	480f883a 	mov	r7,r9
    502c:	180b883a 	mov	r5,r3
    5030:	1009883a 	mov	r4,r2
    5034:	00098a40 	call	98a4 <__adddf3>
    5038:	180f883a 	mov	r7,r3
    503c:	a80b883a 	mov	r5,r21
    5040:	a009883a 	mov	r4,r20
    5044:	100d883a 	mov	r6,r2
    5048:	0009cdc0 	call	9cdc <__divdf3>
    504c:	180f883a 	mov	r7,r3
    5050:	b009883a 	mov	r4,r22
    5054:	b80b883a 	mov	r5,r23
    5058:	100d883a 	mov	r6,r2
    505c:	00099180 	call	9918 <__muldf3>
    5060:	1011883a 	mov	r8,r2
    5064:	b80b883a 	mov	r5,r23
    5068:	180f883a 	mov	r7,r3
    506c:	b009883a 	mov	r4,r22
    5070:	003f4906 	br	4d98 <__ieee754_asin+0xbc>
    5074:	280f883a 	mov	r7,r5
    5078:	b009883a 	mov	r4,r22
    507c:	b00d883a 	mov	r6,r22
    5080:	00098240 	call	9824 <__subdf3>
    5084:	1009883a 	mov	r4,r2
    5088:	180b883a 	mov	r5,r3
    508c:	100d883a 	mov	r6,r2
    5090:	180f883a 	mov	r7,r3
    5094:	0009cdc0 	call	9cdc <__divdf3>
    5098:	102d883a 	mov	r22,r2
    509c:	182f883a 	mov	r23,r3
    50a0:	003f4106 	br	4da8 <__ieee754_asin+0xcc>
    50a4:	00a20034 	movhi	r2,34816
    50a8:	109d6704 	addi	r2,r2,30108
    50ac:	00df8e34 	movhi	r3,32312
    50b0:	18f90f04 	addi	r3,r3,-7108
    50b4:	180f883a 	mov	r7,r3
    50b8:	100d883a 	mov	r6,r2
    50bc:	00098a40 	call	98a4 <__adddf3>
    50c0:	0011883a 	mov	r8,zero
    50c4:	024ffc34 	movhi	r9,16368
    50c8:	180b883a 	mov	r5,r3
    50cc:	480f883a 	mov	r7,r9
    50d0:	1009883a 	mov	r4,r2
    50d4:	400d883a 	mov	r6,r8
    50d8:	0009fbc0 	call	9fbc <__gtdf2>
    50dc:	00bf3216 	blt	zero,r2,4da8 <__ieee754_asin+0xcc>
    50e0:	b80b883a 	mov	r5,r23
    50e4:	b009883a 	mov	r4,r22
    50e8:	00077500 	call	7750 <fabs>
    50ec:	044ffc34 	movhi	r17,16368
    50f0:	0021883a 	mov	r16,zero
    50f4:	180f883a 	mov	r7,r3
    50f8:	8009883a 	mov	r4,r16
    50fc:	880b883a 	mov	r5,r17
    5100:	100d883a 	mov	r6,r2
    5104:	00098240 	call	9824 <__subdf3>
    5108:	0011883a 	mov	r8,zero
    510c:	024ff834 	movhi	r9,16352
    5110:	480f883a 	mov	r7,r9
    5114:	400d883a 	mov	r6,r8
    5118:	180b883a 	mov	r5,r3
    511c:	1009883a 	mov	r4,r2
    5120:	00099180 	call	9918 <__muldf3>
    5124:	d8c00515 	stw	r3,20(sp)
    5128:	d8800015 	stw	r2,0(sp)
    512c:	d9000017 	ldw	r4,0(sp)
    5130:	d9400517 	ldw	r5,20(sp)
    5134:	d8800415 	stw	r2,16(sp)
    5138:	d8c00115 	stw	r3,4(sp)
    513c:	00837fb4 	movhi	r2,3582
    5140:	10bdc244 	addi	r2,r2,-2295
    5144:	00cfc0b4 	movhi	r3,16130
    5148:	18cf7844 	addi	r3,r3,15841
    514c:	180f883a 	mov	r7,r3
    5150:	100d883a 	mov	r6,r2
    5154:	00099180 	call	9918 <__muldf3>
    5158:	021d40b4 	movhi	r8,29954
    515c:	422ca204 	addi	r8,r8,-19832
    5160:	024fd2b4 	movhi	r9,16202
    5164:	4a7bf804 	addi	r9,r9,-4128
    5168:	480f883a 	mov	r7,r9
    516c:	400d883a 	mov	r6,r8
    5170:	180b883a 	mov	r5,r3
    5174:	1009883a 	mov	r4,r2
    5178:	00098a40 	call	98a4 <__adddf3>
    517c:	d9000017 	ldw	r4,0(sp)
    5180:	d9400517 	ldw	r5,20(sp)
    5184:	180f883a 	mov	r7,r3
    5188:	100d883a 	mov	r6,r2
    518c:	00099180 	call	9918 <__muldf3>
    5190:	022d5a74 	movhi	r8,46441
    5194:	4223cec4 	addi	r8,r8,-28869
    5198:	024fe974 	movhi	r9,16293
    519c:	4a608a04 	addi	r9,r9,-32216
    51a0:	480f883a 	mov	r7,r9
    51a4:	400d883a 	mov	r6,r8
    51a8:	180b883a 	mov	r5,r3
    51ac:	1009883a 	mov	r4,r2
    51b0:	00098240 	call	9824 <__subdf3>
    51b4:	d9000017 	ldw	r4,0(sp)
    51b8:	d9400517 	ldw	r5,20(sp)
    51bc:	180f883a 	mov	r7,r3
    51c0:	100d883a 	mov	r6,r2
    51c4:	00099180 	call	9918 <__muldf3>
    51c8:	0203a234 	movhi	r8,3720
    51cc:	42111544 	addi	r8,r8,17493
    51d0:	024ff2b4 	movhi	r9,16330
    51d4:	4a705544 	addi	r9,r9,-16043
    51d8:	480f883a 	mov	r7,r9
    51dc:	400d883a 	mov	r6,r8
    51e0:	180b883a 	mov	r5,r3
    51e4:	1009883a 	mov	r4,r2
    51e8:	00098a40 	call	98a4 <__adddf3>
    51ec:	d9000017 	ldw	r4,0(sp)
    51f0:	d9400517 	ldw	r5,20(sp)
    51f4:	180f883a 	mov	r7,r3
    51f8:	100d883a 	mov	r6,r2
    51fc:	00099180 	call	9918 <__muldf3>
    5200:	0200faf4 	movhi	r8,1003
    5204:	421bdf44 	addi	r8,r8,28541
    5208:	024ff574 	movhi	r9,16341
    520c:	4a758484 	addi	r9,r9,-10734
    5210:	480f883a 	mov	r7,r9
    5214:	400d883a 	mov	r6,r8
    5218:	180b883a 	mov	r5,r3
    521c:	1009883a 	mov	r4,r2
    5220:	00098240 	call	9824 <__subdf3>
    5224:	d9000017 	ldw	r4,0(sp)
    5228:	d9400517 	ldw	r5,20(sp)
    522c:	180f883a 	mov	r7,r3
    5230:	100d883a 	mov	r6,r2
    5234:	00099180 	call	9918 <__muldf3>
    5238:	02155574 	movhi	r8,21845
    523c:	42155544 	addi	r8,r8,21845
    5240:	024ff174 	movhi	r9,16325
    5244:	4a555544 	addi	r9,r9,21845
    5248:	480f883a 	mov	r7,r9
    524c:	400d883a 	mov	r6,r8
    5250:	180b883a 	mov	r5,r3
    5254:	1009883a 	mov	r4,r2
    5258:	00098a40 	call	98a4 <__adddf3>
    525c:	d9000017 	ldw	r4,0(sp)
    5260:	d9400517 	ldw	r5,20(sp)
    5264:	180f883a 	mov	r7,r3
    5268:	100d883a 	mov	r6,r2
    526c:	00099180 	call	9918 <__muldf3>
    5270:	d9000017 	ldw	r4,0(sp)
    5274:	d9400517 	ldw	r5,20(sp)
    5278:	022c4bf4 	movhi	r8,45359
    527c:	4224a084 	addi	r8,r8,-28030
    5280:	024fed34 	movhi	r9,16308
    5284:	4a6e3144 	addi	r9,r9,-18235
    5288:	480f883a 	mov	r7,r9
    528c:	400d883a 	mov	r6,r8
    5290:	1025883a 	mov	r18,r2
    5294:	1827883a 	mov	r19,r3
    5298:	00099180 	call	9918 <__muldf3>
    529c:	0206e374 	movhi	r8,7053
    52a0:	42005644 	addi	r8,r8,345
    52a4:	024ff9b4 	movhi	r9,16358
    52a8:	4a419b04 	addi	r9,r9,1644
    52ac:	480f883a 	mov	r7,r9
    52b0:	400d883a 	mov	r6,r8
    52b4:	180b883a 	mov	r5,r3
    52b8:	1009883a 	mov	r4,r2
    52bc:	00098240 	call	9824 <__subdf3>
    52c0:	d9000017 	ldw	r4,0(sp)
    52c4:	d9400517 	ldw	r5,20(sp)
    52c8:	180f883a 	mov	r7,r3
    52cc:	100d883a 	mov	r6,r2
    52d0:	00099180 	call	9918 <__muldf3>
    52d4:	022716b4 	movhi	r8,40026
    52d8:	4222b204 	addi	r8,r8,-30008
    52dc:	02500034 	movhi	r9,16384
    52e0:	4a4ab944 	addi	r9,r9,10981
    52e4:	480f883a 	mov	r7,r9
    52e8:	400d883a 	mov	r6,r8
    52ec:	180b883a 	mov	r5,r3
    52f0:	1009883a 	mov	r4,r2
    52f4:	00098a40 	call	98a4 <__adddf3>
    52f8:	d9000017 	ldw	r4,0(sp)
    52fc:	d9400517 	ldw	r5,20(sp)
    5300:	180f883a 	mov	r7,r3
    5304:	100d883a 	mov	r6,r2
    5308:	00099180 	call	9918 <__muldf3>
    530c:	020722b4 	movhi	r8,7306
    5310:	420b52c4 	addi	r8,r8,11595
    5314:	025000f4 	movhi	r9,16387
    5318:	4a4e89c4 	addi	r9,r9,14887
    531c:	480f883a 	mov	r7,r9
    5320:	400d883a 	mov	r6,r8
    5324:	180b883a 	mov	r5,r3
    5328:	1009883a 	mov	r4,r2
    532c:	00098240 	call	9824 <__subdf3>
    5330:	d9000017 	ldw	r4,0(sp)
    5334:	d9400517 	ldw	r5,20(sp)
    5338:	180f883a 	mov	r7,r3
    533c:	100d883a 	mov	r6,r2
    5340:	00099180 	call	9918 <__muldf3>
    5344:	180b883a 	mov	r5,r3
    5348:	000d883a 	mov	r6,zero
    534c:	880f883a 	mov	r7,r17
    5350:	1009883a 	mov	r4,r2
    5354:	00098a40 	call	98a4 <__adddf3>
    5358:	d9000017 	ldw	r4,0(sp)
    535c:	d9400517 	ldw	r5,20(sp)
    5360:	102d883a 	mov	r22,r2
    5364:	182f883a 	mov	r23,r3
    5368:	0005dc00 	call	5dc0 <__ieee754_sqrt>
    536c:	d8800215 	stw	r2,8(sp)
    5370:	008ffbf4 	movhi	r2,16367
    5374:	108ccc84 	addi	r2,r2,13106
    5378:	9009883a 	mov	r4,r18
    537c:	b00d883a 	mov	r6,r22
    5380:	d8c00315 	stw	r3,12(sp)
    5384:	980b883a 	mov	r5,r19
    5388:	b80f883a 	mov	r7,r23
    538c:	1500260e 	bge	r2,r20,5428 <__ieee754_asin+0x74c>
    5390:	0009cdc0 	call	9cdc <__divdf3>
    5394:	d9000217 	ldw	r4,8(sp)
    5398:	d9400317 	ldw	r5,12(sp)
    539c:	180f883a 	mov	r7,r3
    53a0:	100d883a 	mov	r6,r2
    53a4:	00099180 	call	9918 <__muldf3>
    53a8:	d9400317 	ldw	r5,12(sp)
    53ac:	d9000217 	ldw	r4,8(sp)
    53b0:	180f883a 	mov	r7,r3
    53b4:	100d883a 	mov	r6,r2
    53b8:	00098a40 	call	98a4 <__adddf3>
    53bc:	180f883a 	mov	r7,r3
    53c0:	1009883a 	mov	r4,r2
    53c4:	180b883a 	mov	r5,r3
    53c8:	100d883a 	mov	r6,r2
    53cc:	00098a40 	call	98a4 <__adddf3>
    53d0:	020cc534 	movhi	r8,13076
    53d4:	421701c4 	addi	r8,r8,23559
    53d8:	024f24b4 	movhi	r9,15506
    53dc:	4a698984 	addi	r9,r9,-23002
    53e0:	480f883a 	mov	r7,r9
    53e4:	400d883a 	mov	r6,r8
    53e8:	180b883a 	mov	r5,r3
    53ec:	1009883a 	mov	r4,r2
    53f0:	00098240 	call	9824 <__subdf3>
    53f4:	02151134 	movhi	r8,21572
    53f8:	420b4604 	addi	r8,r8,11544
    53fc:	024ffe74 	movhi	r9,16377
    5400:	4a487ec4 	addi	r9,r9,8699
    5404:	480b883a 	mov	r5,r9
    5408:	180f883a 	mov	r7,r3
    540c:	4009883a 	mov	r4,r8
    5410:	100d883a 	mov	r6,r2
    5414:	00098240 	call	9824 <__subdf3>
    5418:	07005c0e 	bge	zero,fp,558c <__ieee754_asin+0x8b0>
    541c:	102d883a 	mov	r22,r2
    5420:	182f883a 	mov	r23,r3
    5424:	003e6006 	br	4da8 <__ieee754_asin+0xcc>
    5428:	980b883a 	mov	r5,r19
    542c:	b80f883a 	mov	r7,r23
    5430:	0009cdc0 	call	9cdc <__divdf3>
    5434:	d9000217 	ldw	r4,8(sp)
    5438:	d9400317 	ldw	r5,12(sp)
    543c:	1021883a 	mov	r16,r2
    5440:	200d883a 	mov	r6,r4
    5444:	280f883a 	mov	r7,r5
    5448:	1823883a 	mov	r17,r3
    544c:	00098a40 	call	98a4 <__adddf3>
    5450:	d9000317 	ldw	r4,12(sp)
    5454:	0029883a 	mov	r20,zero
    5458:	880b883a 	mov	r5,r17
    545c:	2027883a 	mov	r19,r4
    5460:	180f883a 	mov	r7,r3
    5464:	8009883a 	mov	r4,r16
    5468:	100d883a 	mov	r6,r2
    546c:	00099180 	call	9918 <__muldf3>
    5470:	980b883a 	mov	r5,r19
    5474:	980f883a 	mov	r7,r19
    5478:	a009883a 	mov	r4,r20
    547c:	a00d883a 	mov	r6,r20
    5480:	102d883a 	mov	r22,r2
    5484:	182f883a 	mov	r23,r3
    5488:	00099180 	call	9918 <__muldf3>
    548c:	d9000017 	ldw	r4,0(sp)
    5490:	d9400517 	ldw	r5,20(sp)
    5494:	180f883a 	mov	r7,r3
    5498:	100d883a 	mov	r6,r2
    549c:	00098240 	call	9824 <__subdf3>
    54a0:	d9400317 	ldw	r5,12(sp)
    54a4:	d9000217 	ldw	r4,8(sp)
    54a8:	980f883a 	mov	r7,r19
    54ac:	a00d883a 	mov	r6,r20
    54b0:	1021883a 	mov	r16,r2
    54b4:	1823883a 	mov	r17,r3
    54b8:	00098a40 	call	98a4 <__adddf3>
    54bc:	180f883a 	mov	r7,r3
    54c0:	880b883a 	mov	r5,r17
    54c4:	8009883a 	mov	r4,r16
    54c8:	100d883a 	mov	r6,r2
    54cc:	0009cdc0 	call	9cdc <__divdf3>
    54d0:	04700034 	movhi	r17,49152
    54d4:	0021883a 	mov	r16,zero
    54d8:	800d883a 	mov	r6,r16
    54dc:	880f883a 	mov	r7,r17
    54e0:	180b883a 	mov	r5,r3
    54e4:	1009883a 	mov	r4,r2
    54e8:	00099180 	call	9918 <__muldf3>
    54ec:	020cc534 	movhi	r8,13076
    54f0:	421701c4 	addi	r8,r8,23559
    54f4:	024f24b4 	movhi	r9,15506
    54f8:	4a698984 	addi	r9,r9,-23002
    54fc:	480f883a 	mov	r7,r9
    5500:	400d883a 	mov	r6,r8
    5504:	180b883a 	mov	r5,r3
    5508:	1009883a 	mov	r4,r2
    550c:	00098a40 	call	98a4 <__adddf3>
    5510:	180f883a 	mov	r7,r3
    5514:	b80b883a 	mov	r5,r23
    5518:	b009883a 	mov	r4,r22
    551c:	100d883a 	mov	r6,r2
    5520:	00098240 	call	9824 <__subdf3>
    5524:	880f883a 	mov	r7,r17
    5528:	980b883a 	mov	r5,r19
    552c:	000d883a 	mov	r6,zero
    5530:	a009883a 	mov	r4,r20
    5534:	1025883a 	mov	r18,r2
    5538:	1827883a 	mov	r19,r3
    553c:	04151134 	movhi	r16,21572
    5540:	840b4604 	addi	r16,r16,11544
    5544:	00099180 	call	9918 <__muldf3>
    5548:	044ffa74 	movhi	r17,16361
    554c:	8c487ec4 	addi	r17,r17,8699
    5550:	180b883a 	mov	r5,r3
    5554:	1009883a 	mov	r4,r2
    5558:	800d883a 	mov	r6,r16
    555c:	880f883a 	mov	r7,r17
    5560:	00098a40 	call	98a4 <__adddf3>
    5564:	180f883a 	mov	r7,r3
    5568:	980b883a 	mov	r5,r19
    556c:	9009883a 	mov	r4,r18
    5570:	100d883a 	mov	r6,r2
    5574:	00098240 	call	9824 <__subdf3>
    5578:	180f883a 	mov	r7,r3
    557c:	8009883a 	mov	r4,r16
    5580:	880b883a 	mov	r5,r17
    5584:	100d883a 	mov	r6,r2
    5588:	003fa206 	br	5414 <__ieee754_asin+0x738>
    558c:	102d883a 	mov	r22,r2
    5590:	1de0003c 	xorhi	r23,r3,32768
    5594:	003e0406 	br	4da8 <__ieee754_asin+0xcc>

00005598 <__ieee754_rem_pio2>:
    5598:	deffe304 	addi	sp,sp,-116
    559c:	00a00034 	movhi	r2,32768
    55a0:	10bfffc4 	addi	r2,r2,-1
    55a4:	dd801915 	stw	r22,100(sp)
    55a8:	28ac703a 	and	r22,r5,r2
    55ac:	008ffa74 	movhi	r2,16361
    55b0:	10887ec4 	addi	r2,r2,8699
    55b4:	df001b15 	stw	fp,108(sp)
    55b8:	dfc01c15 	stw	ra,112(sp)
    55bc:	ddc01a15 	stw	r23,104(sp)
    55c0:	dd401815 	stw	r21,96(sp)
    55c4:	dd001715 	stw	r20,92(sp)
    55c8:	dcc01615 	stw	r19,88(sp)
    55cc:	dc801515 	stw	r18,84(sp)
    55d0:	dc401415 	stw	r17,80(sp)
    55d4:	dc001315 	stw	r16,76(sp)
    55d8:	2013883a 	mov	r9,r4
    55dc:	d9400a15 	stw	r5,40(sp)
    55e0:	3039883a 	mov	fp,r6
    55e4:	15801216 	blt	r2,r22,5630 <__ieee754_rem_pio2+0x98>
    55e8:	e1400115 	stw	r5,4(fp)
    55ec:	30000315 	stw	zero,12(r6)
    55f0:	e1000015 	stw	r4,0(fp)
    55f4:	d8000b15 	stw	zero,44(sp)
    55f8:	30000215 	stw	zero,8(r6)
    55fc:	d8800b17 	ldw	r2,44(sp)
    5600:	dfc01c17 	ldw	ra,112(sp)
    5604:	df001b17 	ldw	fp,108(sp)
    5608:	ddc01a17 	ldw	r23,104(sp)
    560c:	dd801917 	ldw	r22,100(sp)
    5610:	dd401817 	ldw	r21,96(sp)
    5614:	dd001717 	ldw	r20,92(sp)
    5618:	dcc01617 	ldw	r19,88(sp)
    561c:	dc801517 	ldw	r18,84(sp)
    5620:	dc401417 	ldw	r17,80(sp)
    5624:	dc001317 	ldw	r16,76(sp)
    5628:	dec01d04 	addi	sp,sp,116
    562c:	f800283a 	ret
    5630:	009000f4 	movhi	r2,16387
    5634:	10b65ec4 	addi	r2,r2,-9861
    5638:	15800f0e 	bge	r2,r22,5678 <__ieee754_rem_pio2+0xe0>
    563c:	00904e74 	movhi	r2,16697
    5640:	10887ec4 	addi	r2,r2,8699
    5644:	1580330e 	bge	r2,r22,5714 <__ieee754_rem_pio2+0x17c>
    5648:	009ffc34 	movhi	r2,32752
    564c:	10bfffc4 	addi	r2,r2,-1
    5650:	1580fe0e 	bge	r2,r22,5a4c <__ieee754_rem_pio2+0x4b4>
    5654:	280f883a 	mov	r7,r5
    5658:	480d883a 	mov	r6,r9
    565c:	00098240 	call	9824 <__subdf3>
    5660:	e0c00115 	stw	r3,4(fp)
    5664:	d8000b15 	stw	zero,44(sp)
    5668:	e0800015 	stw	r2,0(fp)
    566c:	e0800215 	stw	r2,8(fp)
    5670:	e0c00315 	stw	r3,12(fp)
    5674:	003fe106 	br	55fc <__ieee754_rem_pio2+0x64>
    5678:	d9000a17 	ldw	r4,40(sp)
    567c:	0100ce0e 	bge	zero,r4,59b8 <__ieee754_rem_pio2+0x420>
    5680:	04151034 	movhi	r16,21568
    5684:	044ffe74 	movhi	r17,16377
    5688:	8c487ec4 	addi	r17,r17,8699
    568c:	4809883a 	mov	r4,r9
    5690:	800d883a 	mov	r6,r16
    5694:	880f883a 	mov	r7,r17
    5698:	00098240 	call	9824 <__subdf3>
    569c:	1025883a 	mov	r18,r2
    56a0:	1827883a 	mov	r19,r3
    56a4:	b4413c26 	beq	r22,r17,5b98 <__ieee754_rem_pio2+0x600>
    56a8:	040698b4 	movhi	r16,6754
    56ac:	8418cc44 	addi	r16,r16,25393
    56b0:	044f7474 	movhi	r17,15825
    56b4:	8c6d1844 	addi	r17,r17,-19359
    56b8:	1009883a 	mov	r4,r2
    56bc:	180b883a 	mov	r5,r3
    56c0:	800d883a 	mov	r6,r16
    56c4:	880f883a 	mov	r7,r17
    56c8:	00098240 	call	9824 <__subdf3>
    56cc:	100d883a 	mov	r6,r2
    56d0:	9009883a 	mov	r4,r18
    56d4:	980b883a 	mov	r5,r19
    56d8:	180f883a 	mov	r7,r3
    56dc:	e0800015 	stw	r2,0(fp)
    56e0:	e0c00115 	stw	r3,4(fp)
    56e4:	00098240 	call	9824 <__subdf3>
    56e8:	1009883a 	mov	r4,r2
    56ec:	800d883a 	mov	r6,r16
    56f0:	880f883a 	mov	r7,r17
    56f4:	180b883a 	mov	r5,r3
    56f8:	00098240 	call	9824 <__subdf3>
    56fc:	1009883a 	mov	r4,r2
    5700:	00800044 	movi	r2,1
    5704:	d8800b15 	stw	r2,44(sp)
    5708:	e0c00315 	stw	r3,12(fp)
    570c:	e1000215 	stw	r4,8(fp)
    5710:	003fba06 	br	55fc <__ieee754_rem_pio2+0x64>
    5714:	00077500 	call	7750 <fabs>
    5718:	021b72b4 	movhi	r8,28106
    571c:	423220c4 	addi	r8,r8,-14205
    5720:	024ff934 	movhi	r9,16356
    5724:	4a57cc04 	addi	r9,r9,24368
    5728:	480f883a 	mov	r7,r9
    572c:	400d883a 	mov	r6,r8
    5730:	1009883a 	mov	r4,r2
    5734:	180b883a 	mov	r5,r3
    5738:	1025883a 	mov	r18,r2
    573c:	1827883a 	mov	r19,r3
    5740:	00099180 	call	9918 <__muldf3>
    5744:	0011883a 	mov	r8,zero
    5748:	024ff834 	movhi	r9,16352
    574c:	480f883a 	mov	r7,r9
    5750:	400d883a 	mov	r6,r8
    5754:	180b883a 	mov	r5,r3
    5758:	1009883a 	mov	r4,r2
    575c:	00098a40 	call	98a4 <__adddf3>
    5760:	180b883a 	mov	r5,r3
    5764:	1009883a 	mov	r4,r2
    5768:	000a24c0 	call	a24c <__fixdfsi>
    576c:	1009883a 	mov	r4,r2
    5770:	d8800b15 	stw	r2,44(sp)
    5774:	000a1540 	call	a154 <__floatsidf>
    5778:	1823883a 	mov	r17,r3
    577c:	1009883a 	mov	r4,r2
    5780:	d8800c15 	stw	r2,48(sp)
    5784:	00effe74 	movhi	r3,49145
    5788:	18c87ec4 	addi	r3,r3,8699
    578c:	00951034 	movhi	r2,21568
    5790:	880b883a 	mov	r5,r17
    5794:	180f883a 	mov	r7,r3
    5798:	100d883a 	mov	r6,r2
    579c:	dc400d15 	stw	r17,52(sp)
    57a0:	00099180 	call	9918 <__muldf3>
    57a4:	180f883a 	mov	r7,r3
    57a8:	980b883a 	mov	r5,r19
    57ac:	9009883a 	mov	r4,r18
    57b0:	100d883a 	mov	r6,r2
    57b4:	00098a40 	call	98a4 <__adddf3>
    57b8:	d9000c17 	ldw	r4,48(sp)
    57bc:	020698b4 	movhi	r8,6754
    57c0:	4218cc44 	addi	r8,r8,25393
    57c4:	024f7474 	movhi	r9,15825
    57c8:	4a6d1844 	addi	r9,r9,-19359
    57cc:	880b883a 	mov	r5,r17
    57d0:	480f883a 	mov	r7,r9
    57d4:	400d883a 	mov	r6,r8
    57d8:	1025883a 	mov	r18,r2
    57dc:	1827883a 	mov	r19,r3
    57e0:	00099180 	call	9918 <__muldf3>
    57e4:	d9000b17 	ldw	r4,44(sp)
    57e8:	100f883a 	mov	r7,r2
    57ec:	1811883a 	mov	r8,r3
    57f0:	008007c4 	movi	r2,31
    57f4:	dc800e15 	stw	r18,56(sp)
    57f8:	3821883a 	mov	r16,r7
    57fc:	dcc00f15 	stw	r19,60(sp)
    5800:	4023883a 	mov	r17,r8
    5804:	11010a0e 	bge	r2,r4,5c30 <__ieee754_rem_pio2+0x698>
    5808:	d9000e17 	ldw	r4,56(sp)
    580c:	d9400f17 	ldw	r5,60(sp)
    5810:	800d883a 	mov	r6,r16
    5814:	880f883a 	mov	r7,r17
    5818:	00098240 	call	9824 <__subdf3>
    581c:	1810d53a 	srli	r8,r3,20
    5820:	b02dd53a 	srai	r22,r22,20
    5824:	1009883a 	mov	r4,r2
    5828:	4201ffcc 	andi	r8,r8,2047
    582c:	180b883a 	mov	r5,r3
    5830:	b211c83a 	sub	r8,r22,r8
    5834:	00800404 	movi	r2,16
    5838:	dd801015 	stw	r22,64(sp)
    583c:	e1000015 	stw	r4,0(fp)
    5840:	e1400115 	stw	r5,4(fp)
    5844:	1200430e 	bge	r2,r8,5954 <__ieee754_rem_pio2+0x3bc>
    5848:	d9000c17 	ldw	r4,48(sp)
    584c:	d9400d17 	ldw	r5,52(sp)
    5850:	00869834 	movhi	r2,6752
    5854:	00cf7474 	movhi	r3,15825
    5858:	18ed1844 	addi	r3,r3,-19359
    585c:	180f883a 	mov	r7,r3
    5860:	100d883a 	mov	r6,r2
    5864:	00099180 	call	9918 <__muldf3>
    5868:	d9000e17 	ldw	r4,56(sp)
    586c:	d9400f17 	ldw	r5,60(sp)
    5870:	100d883a 	mov	r6,r2
    5874:	180f883a 	mov	r7,r3
    5878:	1025883a 	mov	r18,r2
    587c:	1827883a 	mov	r19,r3
    5880:	00098240 	call	9824 <__subdf3>
    5884:	d9000c17 	ldw	r4,48(sp)
    5888:	d9400d17 	ldw	r5,52(sp)
    588c:	058b80f4 	movhi	r22,11779
    5890:	b59c1cc4 	addi	r22,r22,28787
    5894:	05cee8f4 	movhi	r23,15267
    5898:	bdc66284 	addi	r23,r23,6538
    589c:	b00d883a 	mov	r6,r22
    58a0:	b80f883a 	mov	r7,r23
    58a4:	d8801115 	stw	r2,68(sp)
    58a8:	d8c01215 	stw	r3,72(sp)
    58ac:	d8800815 	stw	r2,32(sp)
    58b0:	00099180 	call	9918 <__muldf3>
    58b4:	d9001217 	ldw	r4,72(sp)
    58b8:	d9400f17 	ldw	r5,60(sp)
    58bc:	d9800817 	ldw	r6,32(sp)
    58c0:	d9000915 	stw	r4,36(sp)
    58c4:	d9c01217 	ldw	r7,72(sp)
    58c8:	d9000e17 	ldw	r4,56(sp)
    58cc:	1021883a 	mov	r16,r2
    58d0:	1823883a 	mov	r17,r3
    58d4:	00098240 	call	9824 <__subdf3>
    58d8:	180b883a 	mov	r5,r3
    58dc:	900d883a 	mov	r6,r18
    58e0:	980f883a 	mov	r7,r19
    58e4:	1009883a 	mov	r4,r2
    58e8:	00098240 	call	9824 <__subdf3>
    58ec:	180f883a 	mov	r7,r3
    58f0:	880b883a 	mov	r5,r17
    58f4:	8009883a 	mov	r4,r16
    58f8:	100d883a 	mov	r6,r2
    58fc:	00098240 	call	9824 <__subdf3>
    5900:	d9000817 	ldw	r4,32(sp)
    5904:	d9401217 	ldw	r5,72(sp)
    5908:	180f883a 	mov	r7,r3
    590c:	100d883a 	mov	r6,r2
    5910:	1021883a 	mov	r16,r2
    5914:	1823883a 	mov	r17,r3
    5918:	00098240 	call	9824 <__subdf3>
    591c:	1810d53a 	srli	r8,r3,20
    5920:	1009883a 	mov	r4,r2
    5924:	d8801017 	ldw	r2,64(sp)
    5928:	4201ffcc 	andi	r8,r8,2047
    592c:	180b883a 	mov	r5,r3
    5930:	1211c83a 	sub	r8,r2,r8
    5934:	00800c44 	movi	r2,49
    5938:	e1000015 	stw	r4,0(fp)
    593c:	e1400115 	stw	r5,4(fp)
    5940:	1200f016 	blt	r2,r8,5d04 <__ieee754_rem_pio2+0x76c>
    5944:	d8c00817 	ldw	r3,32(sp)
    5948:	d9001217 	ldw	r4,72(sp)
    594c:	d8c00e15 	stw	r3,56(sp)
    5950:	d9000f15 	stw	r4,60(sp)
    5954:	e1800017 	ldw	r6,0(fp)
    5958:	e1c00117 	ldw	r7,4(fp)
    595c:	d9400f17 	ldw	r5,60(sp)
    5960:	d9000e17 	ldw	r4,56(sp)
    5964:	00098240 	call	9824 <__subdf3>
    5968:	180b883a 	mov	r5,r3
    596c:	800d883a 	mov	r6,r16
    5970:	880f883a 	mov	r7,r17
    5974:	1009883a 	mov	r4,r2
    5978:	00098240 	call	9824 <__subdf3>
    597c:	d9400a17 	ldw	r5,40(sp)
    5980:	e0800215 	stw	r2,8(fp)
    5984:	e1800204 	addi	r6,fp,8
    5988:	30c00115 	stw	r3,4(r6)
    598c:	283f1b0e 	bge	r5,zero,55fc <__ieee754_rem_pio2+0x64>
    5990:	e0c00117 	ldw	r3,4(fp)
    5994:	d8800b17 	ldw	r2,44(sp)
    5998:	18e0003c 	xorhi	r3,r3,32768
    599c:	0085c83a 	sub	r2,zero,r2
    59a0:	e0c00115 	stw	r3,4(fp)
    59a4:	d8800b15 	stw	r2,44(sp)
    59a8:	30800117 	ldw	r2,4(r6)
    59ac:	10a0003c 	xorhi	r2,r2,32768
    59b0:	30800115 	stw	r2,4(r6)
    59b4:	003f1106 	br	55fc <__ieee754_rem_pio2+0x64>
    59b8:	04151034 	movhi	r16,21568
    59bc:	044ffe74 	movhi	r17,16377
    59c0:	8c487ec4 	addi	r17,r17,8699
    59c4:	4809883a 	mov	r4,r9
    59c8:	800d883a 	mov	r6,r16
    59cc:	880f883a 	mov	r7,r17
    59d0:	00098a40 	call	98a4 <__adddf3>
    59d4:	1025883a 	mov	r18,r2
